EXPORTS
	_ZN12COssKeyboard4NewLEv @ 1 NONAME
	_ZN12COssKeyboard5NewLCEv @ 2 NONAME
	_ZN12COssKeyboard7SetTypeERKi @ 3 NONAME
	_ZN12COssKeyboard8SetValueERKiRK5TChar @ 4 NONAME
	_ZN12COssKeyboardD0Ev @ 5 NONAME
	_ZN12COssKeyboardD1Ev @ 6 NONAME
	_ZN12COssKeyboardD2Ev @ 7 NONAME
	_ZN15COssCombination15AddCombinationLERK19TOssCombinationItem @ 8 NONAME
	_ZN15COssCombination15FindCombinationERK19TOssCombinationItem @ 9 NONAME
	_ZN15COssCombination17RemoveCombinationERK19TOssCombinationItem @ 10 NONAME
	_ZN15COssCombination4NewLEv @ 11 NONAME
	_ZN15COssCombination5NewLCEv @ 12 NONAME
	_ZN15COssCombinationD0Ev @ 13 NONAME
	_ZN15COssCombinationD1Ev @ 14 NONAME
	_ZN15COssCombinationD2Ev @ 15 NONAME
	_ZN22COssHangulInputContext11HasChoseongEv @ 16 NONAME
	_ZN22COssHangulInputContext11SetKeyboardERK12COssKeyboard @ 17 NONAME
	_ZN22COssHangulInputContext12HasJongseongEv @ 18 NONAME
	_ZN22COssHangulInputContext12HasJungseongEv @ 19 NONAME
	_ZN22COssHangulInputContext13SetOutputModeERKi @ 20 NONAME
	_ZN22COssHangulInputContext14SelectKeyboardERK6TDesC8 @ 21 NONAME
	_ZN22COssHangulInputContext15GetCommitStringEv @ 22 NONAME
	_ZN22COssHangulInputContext15SetCombinationLER15COssCombination @ 23 NONAME
	_ZN22COssHangulInputContext16AddEventObserverEP28MOssHangulInputEventObserver @ 24 NONAME
	_ZN22COssHangulInputContext16GetPreeditStringEv @ 25 NONAME
	_ZN22COssHangulInputContext19RemoveEventObserverEP28MOssHangulInputEventObserver @ 26 NONAME
	_ZN22COssHangulInputContext4NewLERK6TDesC8 @ 27 NONAME
	_ZN22COssHangulInputContext5FlushEv @ 28 NONAME
	_ZN22COssHangulInputContext5NewLCERK6TDesC8 @ 29 NONAME
	_ZN22COssHangulInputContext5ResetEv @ 30 NONAME
	_ZN22COssHangulInputContext7IsEmptyEv @ 31 NONAME
	_ZN22COssHangulInputContext7ProcessERK5TChar @ 32 NONAME
	_ZN22COssHangulInputContext9BackSpaceEv @ 33 NONAME
	_ZN22COssHangulInputContextD0Ev @ 34 NONAME
	_ZN22COssHangulInputContextD1Ev @ 35 NONAME
	_ZN22COssHangulInputContextD2Ev @ 36 NONAME
	_ZTI12COssKeyboard @ 37 NONAME ; #<TI>#
	_ZTI15COssCombination @ 38 NONAME ; #<TI>#
	_ZTI22COssHangulInputContext @ 39 NONAME ; #<TI>#
	_ZTI9COssHanja @ 40 NONAME ; #<TI>#
	_ZTV12COssKeyboard @ 41 NONAME ; #<VT>#
	_ZTV15COssCombination @ 42 NONAME ; #<VT>#
	_ZTV22COssHangulInputContext @ 43 NONAME ; #<VT>#
	_ZTV9COssHanja @ 44 NONAME ; #<VT>#

