EXPORTS
	??0CPeninputCommonLayout@@IAE@PAVMLayoutOwner@@@Z @ 1 NONAME ; CPeninputCommonLayout::CPeninputCommonLayout(class MLayoutOwner *)
	??0CPeninputDataConverter@@IAE@XZ @ 2 NONAME ; CPeninputDataConverter::CPeninputDataConverter(void)
	??0CPeninputDataMgr@@IAE@PAVMPeninputLayoutContext@@@Z @ 3 NONAME ; CPeninputDataMgr::CPeninputDataMgr(class MPeninputLayoutContext *)
	??0CPeninputLayoutWindow@@IAE@PAVCFepUiLayout@@PAVMPeninputLayoutContext@@@Z @ 4 NONAME ; CPeninputLayoutWindow::CPeninputLayoutWindow(class CFepUiLayout *, class MPeninputLayoutContext *)
	??0CPeninputUiStateBase@@IAE@PAVMPeninputUiStateMgr@@PAVMPeninputLayoutContext@@@Z @ 5 NONAME ; CPeninputUiStateBase::CPeninputUiStateBase(class MPeninputUiStateMgr *, class MPeninputLayoutContext *)
	??1CPeninputClientLayoutInfo@@UAE@XZ @ 6 NONAME ; CPeninputClientLayoutInfo::~CPeninputClientLayoutInfo(void)
	??1CPeninputCommonLayout@@UAE@XZ @ 7 NONAME ; CPeninputCommonLayout::~CPeninputCommonLayout(void)
	??1CPeninputControlInfo@@UAE@XZ @ 8 NONAME ; CPeninputControlInfo::~CPeninputControlInfo(void)
	??1CPeninputCtrlPool@@UAE@XZ @ 9 NONAME ; CPeninputCtrlPool::~CPeninputCtrlPool(void)
	??1CPeninputDataConverter@@UAE@XZ @ 10 NONAME ; CPeninputDataConverter::~CPeninputDataConverter(void)
	??1CPeninputDataMgr@@UAE@XZ @ 11 NONAME ; CPeninputDataMgr::~CPeninputDataMgr(void)
	??1CPeninputLayoutConfig@@UAE@XZ @ 12 NONAME ; CPeninputLayoutConfig::~CPeninputLayoutConfig(void)
	??1CPeninputLayoutWindow@@UAE@XZ @ 13 NONAME ; CPeninputLayoutWindow::~CPeninputLayoutWindow(void)
	??1CPeninputNumericKepMappingMgr@@UAE@XZ @ 14 NONAME ; CPeninputNumericKepMappingMgr::~CPeninputNumericKepMappingMgr(void)
	??1CPeninputRangeBarInfo@@UAE@XZ @ 15 NONAME ; CPeninputRangeBarInfo::~CPeninputRangeBarInfo(void)
	??1CPeninputRangeInfo@@UAE@XZ @ 16 NONAME ; CPeninputRangeInfo::~CPeninputRangeInfo(void)
	??1CPeninputShiftCapsInfo@@UAE@XZ @ 17 NONAME ; CPeninputShiftCapsInfo::~CPeninputShiftCapsInfo(void)
	??1CPeninputUiStateBase@@UAE@XZ @ 18 NONAME ; CPeninputUiStateBase::~CPeninputUiStateBase(void)
	??1CPeninputUiStateMgr@@UAE@XZ @ 19 NONAME ; CPeninputUiStateMgr::~CPeninputUiStateMgr(void)
	?AddControl@CPeninputCtrlPool@@QAEXPAVCFepUiBaseCtrl@@@Z @ 20 NONAME ; void CPeninputCtrlPool::AddControl(class CFepUiBaseCtrl *)
	?AddControlInfo@CPeninputClientLayoutInfo@@QAEXPAVCPeninputControlInfo@@@Z @ 21 NONAME ; void CPeninputClientLayoutInfo::AddControlInfo(class CPeninputControlInfo *)
	?AddNotOwnedControl@CPeninputLayoutWindow@@IAEXPAVCFepUiBaseCtrl@@@Z @ 22 NONAME ; void CPeninputLayoutWindow::AddNotOwnedControl(class CFepUiBaseCtrl *)
	?AddUiState@CPeninputUiStateMgr@@UAEXPAVCPeninputUiStateBase@@H@Z @ 23 NONAME ; void CPeninputUiStateMgr::AddUiState(class CPeninputUiStateBase *, int)
	?AnyToInt@CPeninputDataConverter@@SAHPAX@Z @ 24 NONAME ; int CPeninputDataConverter::AnyToInt(void *)
	?CaseByShiftCapslockStatus@CPeninputLayoutWindow@@AAEHXZ @ 25 NONAME ; int CPeninputLayoutWindow::CaseByShiftCapslockStatus(void)
	?ChangeButtonStatus@CPeninputLayoutWindow@@IAEXHH@Z @ 26 NONAME ; void CPeninputLayoutWindow::ChangeButtonStatus(int, int)
	?ChangeClientLayout@CPeninputLayoutWindow@@QAEXH@Z @ 27 NONAME ; void CPeninputLayoutWindow::ChangeClientLayout(int)
	?ChangeInputLanguageL@CPeninputLayoutWindow@@QAEXH@Z @ 28 NONAME ; void CPeninputLayoutWindow::ChangeInputLanguageL(int)
	?ChangeLayoutPosition@CPeninputLayoutWindow@@IAEXH@Z @ 29 NONAME ; void CPeninputLayoutWindow::ChangeLayoutPosition(int)
	?ChangeRange@CPeninputLayoutWindow@@QAEXHHH@Z @ 30 NONAME ; void CPeninputLayoutWindow::ChangeRange(int, int, int)
	?ChangeVkbLayout@CPeninputLayoutWindow@@QAEXH@Z @ 31 NONAME ; void CPeninputLayoutWindow::ChangeVkbLayout(int)
	?CombinationToDesc@CPeninputDataConverter@@SAXHIAAVTDes16@@@Z @ 32 NONAME ; void CPeninputDataConverter::CombinationToDesc(int, unsigned int, class TDes16 &)
	?ConfigInfo@CPeninputLayoutWindow@@QBEPAVCPeninputLayoutConfig@@XZ @ 33 NONAME ; class CPeninputLayoutConfig * CPeninputLayoutWindow::ConfigInfo(void) const
	?Construct@CPeninputCtrlPool@@IAEXXZ @ 34 NONAME ; void CPeninputCtrlPool::Construct(void)
	?Construct@CPeninputUiStateBase@@IAEXXZ @ 35 NONAME ; void CPeninputUiStateBase::Construct(void)
	?ConstructFromResourceL@CPeninputClientLayoutInfo@@QAEXAAVTResourceReader@@@Z @ 36 NONAME ; void CPeninputClientLayoutInfo::ConstructFromResourceL(class TResourceReader &)
	?ConstructFromResourceL@CPeninputLayoutWindow@@MAEXAAVTResourceReader@@@Z @ 37 NONAME ; void CPeninputLayoutWindow::ConstructFromResourceL(class TResourceReader &)
	?ConstructFromResourceL@CPeninputLayoutWindow@@MAEXXZ @ 38 NONAME ; void CPeninputLayoutWindow::ConstructFromResourceL(void)
	?ConstructL@CPeninputCommonLayout@@IAEXPBX@Z @ 39 NONAME ; void CPeninputCommonLayout::ConstructL(void const *)
	?ConstructL@CPeninputDataMgr@@IAEXXZ @ 40 NONAME ; void CPeninputDataMgr::ConstructL(void)
	?ConstructL@CPeninputLayoutWindow@@IAEXXZ @ 41 NONAME ; void CPeninputLayoutWindow::ConstructL(void)
	?Control@CPeninputCtrlPool@@QBEPAVCFepUiBaseCtrl@@H@Z @ 42 NONAME ; class CFepUiBaseCtrl * CPeninputCtrlPool::Control(int) const
	?ControlByIndex@CPeninputCtrlPool@@QBEPAVCFepUiBaseCtrl@@H@Z @ 43 NONAME ; class CFepUiBaseCtrl * CPeninputCtrlPool::ControlByIndex(int) const
	?ControlCount@CPeninputCtrlPool@@QBEHXZ @ 44 NONAME ; int CPeninputCtrlPool::ControlCount(void) const
	?Count@CPeninputNumericKepMappingMgr@@QBEHXZ @ 45 NONAME ; int CPeninputNumericKepMappingMgr::Count(void) const
	?CurrentUiState@CPeninputUiStateMgr@@UAEPAVCPeninputUiStateBase@@XZ @ 46 NONAME ; class CPeninputUiStateBase * CPeninputUiStateMgr::CurrentUiState(void)
	?DoClose@CPeninputLayoutWindow@@MAEHXZ @ 47 NONAME ; int CPeninputLayoutWindow::DoClose(void)
	?Draw@CPeninputLayoutWindow@@UAEXXZ @ 48 NONAME ; void CPeninputLayoutWindow::Draw(void)
	?FepCaseByCaseId@CPeninputDataConverter@@SAHH@Z @ 49 NONAME ; int CPeninputDataConverter::FepCaseByCaseId(int)
	?FindClientLayoutInfo@CPeninputLayoutConfig@@QAEPAVCPeninputClientLayoutInfo@@H@Z @ 50 NONAME ; class CPeninputClientLayoutInfo * CPeninputLayoutConfig::FindClientLayoutInfo(int)
	?FindControlInfo@CPeninputClientLayoutInfo@@QAEPAVCPeninputControlInfo@@H@Z @ 51 NONAME ; class CPeninputControlInfo * CPeninputClientLayoutInfo::FindControlInfo(int)
	?FindRange@CPeninputRangeBarInfo@@QAEPAVCPeninputRangeInfo@@H@Z @ 52 NONAME ; class CPeninputRangeInfo * CPeninputRangeBarInfo::FindRange(int)
	?FindShiftCapsInfo@CPeninputLayoutConfig@@QAEPAVCPeninputShiftCapsInfo@@H@Z @ 53 NONAME ; class CPeninputShiftCapsInfo * CPeninputLayoutConfig::FindShiftCapsInfo(int)
	?FindShiftCapsSingleByCase@CPeninputShiftCapsInfo@@QAEPAUTPeninputShiftCapsSingle@1@H@Z @ 54 NONAME ; struct CPeninputShiftCapsInfo::TPeninputShiftCapsSingle * CPeninputShiftCapsInfo::FindShiftCapsSingleByCase(int)
	?FindShiftCapsSingleById@CPeninputShiftCapsInfo@@QAEPAUTPeninputShiftCapsSingle@1@H@Z @ 55 NONAME ; struct CPeninputShiftCapsInfo::TPeninputShiftCapsSingle * CPeninputShiftCapsInfo::FindShiftCapsSingleById(int)
	?FindVkbLayoutInfo@CPeninputLayoutConfig@@QAEPAVCPeninputVkbLayoutInfo@@H@Z @ 56 NONAME ; class CPeninputVkbLayoutInfo * CPeninputLayoutConfig::FindVkbLayoutInfo(int)
	?GetUiState@CPeninputUiStateMgr@@UAEPAVCPeninputUiStateBase@@H@Z @ 57 NONAME ; class CPeninputUiStateBase * CPeninputUiStateMgr::GetUiState(int)
	?HandleCapslockBtnClicked@CPeninputLayoutWindow@@UAEXXZ @ 58 NONAME ; void CPeninputLayoutWindow::HandleCapslockBtnClicked(void)
	?HandleCommand@CPeninputCommonLayout@@UAEHHPAE@Z @ 59 NONAME ; int CPeninputCommonLayout::HandleCommand(int, unsigned char *)
	?HandleControlEvent@CPeninputCommonLayout@@UAEXHPAVCFepUiBaseCtrl@@ABVTDesC16@@@Z @ 60 NONAME ; void CPeninputCommonLayout::HandleControlEvent(int, class CFepUiBaseCtrl *, class TDesC16 const &)
	?HandleControlEvent@CPeninputLayoutWindow@@UAEXHPAVCFepUiBaseCtrl@@ABVTDesC16@@@Z @ 61 NONAME ; void CPeninputLayoutWindow::HandleControlEvent(int, class CFepUiBaseCtrl *, class TDesC16 const &)
	?HandleControlEvent@CPeninputUiStateBase@@UAEHHABVTDesC16@@@Z @ 62 NONAME ; int CPeninputUiStateBase::HandleControlEvent(int, class TDesC16 const &)
	?HandleGSRepositoryCallBack@CPeninputDataMgr@@KAHPAX@Z @ 63 NONAME ; int CPeninputDataMgr::HandleGSRepositoryCallBack(void *)
	?HandleGSRepositoryChange@CPeninputDataMgr@@UAEXH@Z @ 64 NONAME ; void CPeninputDataMgr::HandleGSRepositoryChange(int)
	?HandleKeyEventL@CPeninputUiStateBase@@UAEHABVTRawEvent@@@Z @ 65 NONAME ; int CPeninputUiStateBase::HandleKeyEventL(class TRawEvent const &)
	?HandleRangeEvent@CPeninputLayoutWindow@@UAEXH@Z @ 66 NONAME ; void CPeninputLayoutWindow::HandleRangeEvent(int)
	?HandleRangeLoopEvent@CPeninputLayoutWindow@@UAEXH@Z @ 67 NONAME ; void CPeninputLayoutWindow::HandleRangeLoopEvent(int)
	?HandleRawKeyEventL@CPeninputCommonLayout@@UAEHABVTRawEvent@@@Z @ 68 NONAME ; int CPeninputCommonLayout::HandleRawKeyEventL(class TRawEvent const &)
	?HandleShiftBtnClicked@CPeninputLayoutWindow@@UAEXXZ @ 69 NONAME ; void CPeninputLayoutWindow::HandleShiftBtnClicked(void)
	?Init@CPeninputCommonLayout@@MAE?AVTRect@@XZ @ 70 NONAME ; class TRect CPeninputCommonLayout::Init(void)
	?InitMore@CPeninputDataMgr@@UAEXXZ @ 71 NONAME ; void CPeninputDataMgr::InitMore(void)
	?IntToDesc@CPeninputDataConverter@@SAXIAAVTDes16@@@Z @ 72 NONAME ; void CPeninputDataConverter::IntToDesc(unsigned int, class TDes16 &)
	?IsCapsLockPermitted@CPeninputCommonLayout@@UAEHXZ @ 73 NONAME ; int CPeninputCommonLayout::IsCapsLockPermitted(void)
	?IsCapsLockPermitted@CPeninputDataMgr@@QAEHXZ @ 74 NONAME ; int CPeninputDataMgr::IsCapsLockPermitted(void)
	?IsShiftPermitted@CPeninputCommonLayout@@UAEHXZ @ 75 NONAME ; int CPeninputCommonLayout::IsShiftPermitted(void)
	?IsShiftPermitted@CPeninputDataMgr@@QAEHXZ @ 76 NONAME ; int CPeninputDataMgr::IsShiftPermitted(void)
	?IsValidDestination@CPeninputCommonLayout@@MAEHABVTRect@@PAVCDragBar@@AAH2H@Z @ 77 NONAME ; int CPeninputCommonLayout::IsValidDestination(class TRect const &, class CDragBar *, int &, int &, int)
	?KeyMappingStringL@CPeninputNumericKepMappingMgr@@QBEPAVHBufC16@@H@Z @ 78 NONAME ; class HBufC16 * CPeninputNumericKepMappingMgr::KeyMappingStringL(int) const
	?LayoutWindow@CPeninputCommonLayout@@QBEPAVCPeninputLayoutWindow@@XZ @ 79 NONAME ; class CPeninputLayoutWindow * CPeninputCommonLayout::LayoutWindow(void) const
	?NewL@CPeninputClientLayoutInfo@@SAPAV1@AAVTResourceReader@@@Z @ 80 NONAME ; class CPeninputClientLayoutInfo * CPeninputClientLayoutInfo::NewL(class TResourceReader &)
	?NewL@CPeninputControlInfo@@SAPAV1@AAVTResourceReader@@@Z @ 81 NONAME ; class CPeninputControlInfo * CPeninputControlInfo::NewL(class TResourceReader &)
	?NewL@CPeninputCtrlPool@@SAPAV1@XZ @ 82 NONAME ; class CPeninputCtrlPool * CPeninputCtrlPool::NewL(void)
	?NewL@CPeninputDataMgr@@SAPAV1@PAVMPeninputLayoutContext@@@Z @ 83 NONAME ; class CPeninputDataMgr * CPeninputDataMgr::NewL(class MPeninputLayoutContext *)
	?NewL@CPeninputLayoutConfig@@SAPAV1@AAVCAknFepCtrlVkbLayout@@AAVTResourceReader@@@Z @ 84 NONAME ; class CPeninputLayoutConfig * CPeninputLayoutConfig::NewL(class CAknFepCtrlVkbLayout &, class TResourceReader &)
	?NewL@CPeninputNumericKepMappingMgr@@SAPAV1@VTResourceReader@@@Z @ 85 NONAME ; class CPeninputNumericKepMappingMgr * CPeninputNumericKepMappingMgr::NewL(class TResourceReader)
	?NewL@CPeninputRangeBarInfo@@SAPAV1@AAVTResourceReader@@@Z @ 86 NONAME ; class CPeninputRangeBarInfo * CPeninputRangeBarInfo::NewL(class TResourceReader &)
	?NewL@CPeninputRangeInfo@@SAPAV1@AAVTResourceReader@@@Z @ 87 NONAME ; class CPeninputRangeInfo * CPeninputRangeInfo::NewL(class TResourceReader &)
	?NewL@CPeninputShiftCapsInfo@@SAPAV1@AAVTResourceReader@@@Z @ 88 NONAME ; class CPeninputShiftCapsInfo * CPeninputShiftCapsInfo::NewL(class TResourceReader &)
	?NewL@CPeninputUiStateBase@@SAPAV1@PAVMPeninputUiStateMgr@@PAVMPeninputLayoutContext@@@Z @ 89 NONAME ; class CPeninputUiStateBase * CPeninputUiStateBase::NewL(class MPeninputUiStateMgr *, class MPeninputLayoutContext *)
	?NewL@CPeninputUiStateMgr@@SAPAV1@PAVMPeninputLayoutContext@@@Z @ 90 NONAME ; class CPeninputUiStateMgr * CPeninputUiStateMgr::NewL(class MPeninputLayoutContext *)
	?NewLC@CPeninputClientLayoutInfo@@SAPAV1@AAVTResourceReader@@@Z @ 91 NONAME ; class CPeninputClientLayoutInfo * CPeninputClientLayoutInfo::NewLC(class TResourceReader &)
	?NewLC@CPeninputCtrlPool@@SAPAV1@XZ @ 92 NONAME ; class CPeninputCtrlPool * CPeninputCtrlPool::NewLC(void)
	?NewLC@CPeninputDataMgr@@SAPAV1@PAVMPeninputLayoutContext@@@Z @ 93 NONAME ; class CPeninputDataMgr * CPeninputDataMgr::NewLC(class MPeninputLayoutContext *)
	?NewLC@CPeninputNumericKepMappingMgr@@SAPAV1@VTResourceReader@@@Z @ 94 NONAME ; class CPeninputNumericKepMappingMgr * CPeninputNumericKepMappingMgr::NewLC(class TResourceReader)
	?NewLC@CPeninputRangeBarInfo@@SAPAV1@AAVTResourceReader@@@Z @ 95 NONAME ; class CPeninputRangeBarInfo * CPeninputRangeBarInfo::NewLC(class TResourceReader &)
	?NewLC@CPeninputRangeInfo@@SAPAV1@AAVTResourceReader@@@Z @ 96 NONAME ; class CPeninputRangeInfo * CPeninputRangeInfo::NewLC(class TResourceReader &)
	?NewLC@CPeninputShiftCapsInfo@@SAPAV1@AAVTResourceReader@@@Z @ 97 NONAME ; class CPeninputShiftCapsInfo * CPeninputShiftCapsInfo::NewLC(class TResourceReader &)
	?NewLC@CPeninputUiStateMgr@@SAPAV1@PAVMPeninputLayoutContext@@@Z @ 98 NONAME ; class CPeninputUiStateMgr * CPeninputUiStateMgr::NewLC(class MPeninputLayoutContext *)
	?NotifyEngine@CPeninputDataMgr@@UAEXW4TPeninputDataType@@PAX@Z @ 99 NONAME ; void CPeninputDataMgr::NotifyEngine(enum TPeninputDataType, void *)
	?OnAppEditorTextComing@CPeninputCommonLayout@@UAEHABUTFepInputContextFieldData@@@Z @ 100 NONAME ; int CPeninputCommonLayout::OnAppEditorTextComing(struct TFepInputContextFieldData const &)
	?ReadIcfInfo@CPeninputLayoutWindow@@IAEXVTResourceReader@@@Z @ 101 NONAME ; void CPeninputLayoutWindow::ReadIcfInfo(class TResourceReader)
	?ReconfigUnitSize@CPeninputLayoutWindow@@UAEHH@Z @ 102 NONAME ; int CPeninputLayoutWindow::ReconfigUnitSize(int)
	?RemoveControl@CPeninputCtrlPool@@QAEXH@Z @ 103 NONAME ; void CPeninputCtrlPool::RemoveControl(int)
	?RemoveControlInfo@CPeninputClientLayoutInfo@@QAEXH@Z @ 104 NONAME ; void CPeninputClientLayoutInfo::RemoveControlInfo(int)
	?RemoveControlInfo@CPeninputClientLayoutInfo@@QAEXPAVCPeninputControlInfo@@@Z @ 105 NONAME ; void CPeninputClientLayoutInfo::RemoveControlInfo(class CPeninputControlInfo *)
	?RequestData@CPeninputCommonLayout@@UAEPAXW4TPeninputDataType@@@Z @ 106 NONAME ; void * CPeninputCommonLayout::RequestData(enum TPeninputDataType)
	?RequestData@CPeninputDataMgr@@UAEPAXW4TPeninputDataType@@@Z @ 107 NONAME ; void * CPeninputDataMgr::RequestData(enum TPeninputDataType)
	?Reset@CPeninputCtrlPool@@QAEXXZ @ 108 NONAME ; void CPeninputCtrlPool::Reset(void)
	?Reset@CPeninputDataMgr@@UAEXXZ @ 109 NONAME ; void CPeninputDataMgr::Reset(void)
	?Reset@CPeninputNumericKepMappingMgr@@QAEXXZ @ 110 NONAME ; void CPeninputNumericKepMappingMgr::Reset(void)
	?SaveKey@CPeninputCommonLayout@@MAEXHH@Z @ 111 NONAME ; void CPeninputCommonLayout::SaveKey(int, int)
	?SaveKey@CPeninputDataMgr@@UAEXHH@Z @ 112 NONAME ; void CPeninputDataMgr::SaveKey(int, int)
	?SendEventToLayout@CPeninputCommonLayout@@QAEXHPAVCFepUiBaseCtrl@@ABVTDesC16@@@Z @ 113 NONAME ; void CPeninputCommonLayout::SendEventToLayout(int, class CFepUiBaseCtrl *, class TDesC16 const &)
	?SendEventToWindow@CPeninputCommonLayout@@UAEXHPAVCFepUiBaseCtrl@@ABVTDesC16@@@Z @ 114 NONAME ; void CPeninputCommonLayout::SendEventToWindow(int, class CFepUiBaseCtrl *, class TDesC16 const &)
	?SendKey@CPeninputUiStateBase@@IAEHABVTDesC16@@@Z @ 115 NONAME ; int CPeninputUiStateBase::SendKey(class TDesC16 const &)
	?Sendkey@CPeninputCommonLayout@@UAEXHABVTDesC16@@@Z @ 116 NONAME ; void CPeninputCommonLayout::Sendkey(int, class TDesC16 const &)
	?SetCurrentUiState@CPeninputUiStateMgr@@UAEXH@Z @ 117 NONAME ; void CPeninputUiStateMgr::SetCurrentUiState(int)
	?SetCurrentUiState@CPeninputUiStateMgr@@UAEXPAVCPeninputUiStateBase@@@Z @ 118 NONAME ; void CPeninputUiStateMgr::SetCurrentUiState(class CPeninputUiStateBase *)
	?SetData@CPeninputCommonLayout@@UAEXW4TPeninputDataType@@PAX@Z @ 119 NONAME ; void CPeninputCommonLayout::SetData(enum TPeninputDataType, void *)
	?SetData@CPeninputDataMgr@@UAEXW4TPeninputDataType@@PAX@Z @ 120 NONAME ; void CPeninputDataMgr::SetData(enum TPeninputDataType, void *)
	?SetEditorTextL@CPeninputLayoutWindow@@QAEXABUTFepInputContextFieldData@@@Z @ 121 NONAME ; void CPeninputLayoutWindow::SetEditorTextL(struct TFepInputContextFieldData const &)
	?SetEnableSettingBtn@CPeninputLayoutWindow@@QAEXH@Z @ 122 NONAME ; void CPeninputLayoutWindow::SetEnableSettingBtn(int)
	?SetEnableSwitchToHwr@CPeninputLayoutWindow@@QAEXH@Z @ 123 NONAME ; void CPeninputLayoutWindow::SetEnableSwitchToHwr(int)
	?SetSwitchBtnFont@CPeninputLayoutWindow@@IAEXAAVCAknFepCtrlEventButton@@@Z @ 124 NONAME ; void CPeninputLayoutWindow::SetSwitchBtnFont(class CAknFepCtrlEventButton &)
	?SetSwitchBtnTextColor@CPeninputLayoutWindow@@IAEXAAVCAknFepCtrlEventButton@@@Z @ 125 NONAME ; void CPeninputLayoutWindow::SetSwitchBtnTextColor(class CAknFepCtrlEventButton &)
	?SetWindowRect@CPeninputLayoutWindow@@IAEXABVTRect@@@Z @ 126 NONAME ; void CPeninputLayoutWindow::SetWindowRect(class TRect const &)
	?ShiftCapsSingleVkbLayoutByCase@CPeninputLayoutConfig@@QAEHHH@Z @ 127 NONAME ; int CPeninputLayoutConfig::ShiftCapsSingleVkbLayoutByCase(int, int)
	?ShiftCapsSingleVkbLayoutId@CPeninputLayoutConfig@@QAEHHH@Z @ 128 NONAME ; int CPeninputLayoutConfig::ShiftCapsSingleVkbLayoutId(int, int)
	?ShiftCapslockByCase@CPeninputDataConverter@@SAXHAAH0@Z @ 129 NONAME ; void CPeninputDataConverter::ShiftCapslockByCase(int, int &, int &)
	?SizeChanged@CPeninputCommonLayout@@UAEHPBX@Z @ 130 NONAME ; int CPeninputCommonLayout::SizeChanged(void const *)
	?SizeChanged@CPeninputLayoutWindow@@UAEXH@Z @ 131 NONAME ; void CPeninputLayoutWindow::SizeChanged(int)
	?UiStateMgr@CPeninputCommonLayout@@QBEPAVMPeninputUiStateMgr@@XZ @ 132 NONAME ; class MPeninputUiStateMgr * CPeninputCommonLayout::UiStateMgr(void) const
	?PenInputType@CPeninputCommonLayout@@UAE?AW4TPenUiTypeTag@@XZ @ 133 NONAME ABSENT ; int CPeninputCommonLayout::PenInputType(void)
	?SetTextIsSecret@CPeninputLayoutWindow@@QAEXH@Z @ 134 NONAME ; void CPeninputLayoutWindow::SetTextIsSecret(int)
	?OnInputLanguageChange@CPeninputLayoutWindow@@UAEXXZ @ 135 NONAME ABSENT ; void CPeninputLayoutWindow::OnInputLanguageChange(void)
	?SetLafLayOut@CPeninputLayoutWindow@@MAEXHH@Z @ 136 NONAME ABSENT ; void CPeninputLayoutWindow::SetLafLayOut(int, int)
	?SetVkbLayoutSize@CPeninputLayoutWindow@@MAEXXZ @ 137 NONAME ABSENT ; void CPeninputLayoutWindow::SetVkbLayoutSize(void)
	?SizeChangedForBaseWindow@CPeninputLayoutWindow@@MAEXH@Z @ 138 NONAME ABSENT ; void CPeninputLayoutWindow::SizeChangedForBaseWindow(int)
	??0CPeninputCommonLayoutExt@@IAE@PAVMLayoutOwner@@@Z @ 139 NONAME ; CPeninputCommonLayoutExt::CPeninputCommonLayoutExt(class MLayoutOwner *)
	??0CPeninputLayoutWindowExt@@IAE@PAVCFepUiLayout@@PAVMPeninputLayoutContext@@@Z @ 140 NONAME ; CPeninputLayoutWindowExt::CPeninputLayoutWindowExt(class CFepUiLayout *, class MPeninputLayoutContext *)
	??1CPeninputCommonLayoutExt@@UAE@XZ @ 141 NONAME ; CPeninputCommonLayoutExt::~CPeninputCommonLayoutExt(void)
	??1CPeninputLayoutWindowExt@@UAE@XZ @ 142 NONAME ; CPeninputLayoutWindowExt::~CPeninputLayoutWindowExt(void)
	?AddNotOwnedControl@CPeninputLayoutWindowExt@@IAEXPAVCFepUiBaseCtrl@@@Z @ 143 NONAME ; void CPeninputLayoutWindowExt::AddNotOwnedControl(class CFepUiBaseCtrl *)
	?CaseByShiftCapslockStatus@CPeninputLayoutWindowExt@@AAEHXZ @ 144 NONAME ; int CPeninputLayoutWindowExt::CaseByShiftCapslockStatus(void)
	?ChangeButtonStatus@CPeninputLayoutWindowExt@@IAEXHH@Z @ 145 NONAME ; void CPeninputLayoutWindowExt::ChangeButtonStatus(int, int)
	?ChangeClientLayout@CPeninputLayoutWindowExt@@QAEXH@Z @ 146 NONAME ; void CPeninputLayoutWindowExt::ChangeClientLayout(int)
	?ChangeInputLanguageL@CPeninputLayoutWindowExt@@QAEXH@Z @ 147 NONAME ; void CPeninputLayoutWindowExt::ChangeInputLanguageL(int)
	?ChangeLayoutPosition@CPeninputLayoutWindowExt@@IAEXH@Z @ 148 NONAME ; void CPeninputLayoutWindowExt::ChangeLayoutPosition(int)
	?ChangeRange@CPeninputLayoutWindowExt@@QAEXHHH@Z @ 149 NONAME ; void CPeninputLayoutWindowExt::ChangeRange(int, int, int)
	?ChangeVkbLayout@CPeninputLayoutWindowExt@@QAEXH@Z @ 150 NONAME ; void CPeninputLayoutWindowExt::ChangeVkbLayout(int)
	?ConfigInfo@CPeninputLayoutWindowExt@@QBEPAVCPeninputLayoutConfig@@XZ @ 151 NONAME ; class CPeninputLayoutConfig * CPeninputLayoutWindowExt::ConfigInfo(void) const
	?ConstructL@CPeninputCommonLayoutExt@@IAEXPBX@Z @ 152 NONAME ; void CPeninputCommonLayoutExt::ConstructL(void const *)
	?ConstructL@CPeninputLayoutWindowExt@@IAEXXZ @ 153 NONAME ; void CPeninputLayoutWindowExt::ConstructL(void)
	?DoClose@CPeninputLayoutWindowExt@@MAEHXZ @ 154 NONAME ; int CPeninputLayoutWindowExt::DoClose(void)
	?Draw@CPeninputLayoutWindowExt@@UAEXXZ @ 155 NONAME ; void CPeninputLayoutWindowExt::Draw(void)
	?HandleCapslockBtnClicked@CPeninputLayoutWindowExt@@UAEXXZ @ 156 NONAME ; void CPeninputLayoutWindowExt::HandleCapslockBtnClicked(void)
	?HandleCommand@CPeninputCommonLayoutExt@@UAEHHPAE@Z @ 157 NONAME ; int CPeninputCommonLayoutExt::HandleCommand(int, unsigned char *)
	?HandleControlEvent@CPeninputCommonLayoutExt@@UAEXHPAVCFepUiBaseCtrl@@ABVTDesC16@@@Z @ 158 NONAME ; void CPeninputCommonLayoutExt::HandleControlEvent(int, class CFepUiBaseCtrl *, class TDesC16 const &)
	?HandleControlEvent@CPeninputLayoutWindowExt@@UAEXHPAVCFepUiBaseCtrl@@ABVTDesC16@@@Z @ 159 NONAME ; void CPeninputLayoutWindowExt::HandleControlEvent(int, class CFepUiBaseCtrl *, class TDesC16 const &)
	?HandleRangeEvent@CPeninputLayoutWindowExt@@UAEXH@Z @ 160 NONAME ; void CPeninputLayoutWindowExt::HandleRangeEvent(int)
	?HandleRangeLoopEvent@CPeninputLayoutWindowExt@@UAEXH@Z @ 161 NONAME ; void CPeninputLayoutWindowExt::HandleRangeLoopEvent(int)
	?HandleRawKeyEventL@CPeninputCommonLayoutExt@@UAEHABVTRawEvent@@@Z @ 162 NONAME ; int CPeninputCommonLayoutExt::HandleRawKeyEventL(class TRawEvent const &)
	?HandleShiftBtnClicked@CPeninputLayoutWindowExt@@UAEXXZ @ 163 NONAME ; void CPeninputLayoutWindowExt::HandleShiftBtnClicked(void)
	?Init@CPeninputCommonLayoutExt@@MAE?AVTRect@@XZ @ 164 NONAME ; class TRect CPeninputCommonLayoutExt::Init(void)
	?IsCapsLockPermitted@CPeninputCommonLayoutExt@@UAEHXZ @ 165 NONAME ; int CPeninputCommonLayoutExt::IsCapsLockPermitted(void)
	?IsShiftPermitted@CPeninputCommonLayoutExt@@UAEHXZ @ 166 NONAME ; int CPeninputCommonLayoutExt::IsShiftPermitted(void)
	?IsValidDestination@CPeninputCommonLayoutExt@@MAEHABVTRect@@PAVCDragBar@@AAH2H@Z @ 167 NONAME ; int CPeninputCommonLayoutExt::IsValidDestination(class TRect const &, class CDragBar *, int &, int &, int)
	?LayoutWindow@CPeninputCommonLayoutExt@@QBEPAVCPeninputLayoutWindowExt@@XZ @ 168 NONAME ; class CPeninputLayoutWindowExt * CPeninputCommonLayoutExt::LayoutWindow(void) const
	?OnAppEditorTextComing@CPeninputCommonLayoutExt@@UAEHABUTFepInputContextFieldData@@@Z @ 169 NONAME ; int CPeninputCommonLayoutExt::OnAppEditorTextComing(struct TFepInputContextFieldData const &)
	?OnInputLanguageChange@CPeninputLayoutWindowExt@@UAEXXZ @ 170 NONAME ; void CPeninputLayoutWindowExt::OnInputLanguageChange(void)
	?PenInputType@CPeninputCommonLayoutExt@@UAE?AW4TPenUiTypeTag@@XZ @ 171 NONAME ABSENT ; int CPeninputCommonLayoutExt::PenInputType(void)
	?ReconfigUnitSize@CPeninputLayoutWindowExt@@UAEHH@Z @ 172 NONAME ; int CPeninputLayoutWindowExt::ReconfigUnitSize(int)
	?RequestData@CPeninputCommonLayoutExt@@UAEPAXW4TPeninputDataType@@@Z @ 173 NONAME ; void * CPeninputCommonLayoutExt::RequestData(enum TPeninputDataType)
	?SaveKey@CPeninputCommonLayoutExt@@MAEXHH@Z @ 174 NONAME ; void CPeninputCommonLayoutExt::SaveKey(int, int)
	?SendEventToLayout@CPeninputCommonLayoutExt@@QAEXHPAVCFepUiBaseCtrl@@ABVTDesC16@@@Z @ 175 NONAME ; void CPeninputCommonLayoutExt::SendEventToLayout(int, class CFepUiBaseCtrl *, class TDesC16 const &)
	?SendEventToWindow@CPeninputCommonLayoutExt@@UAEXHPAVCFepUiBaseCtrl@@ABVTDesC16@@@Z @ 176 NONAME ; void CPeninputCommonLayoutExt::SendEventToWindow(int, class CFepUiBaseCtrl *, class TDesC16 const &)
	?Sendkey@CPeninputCommonLayoutExt@@UAEXHABVTDesC16@@@Z @ 177 NONAME ; void CPeninputCommonLayoutExt::Sendkey(int, class TDesC16 const &)
	?SetData@CPeninputCommonLayoutExt@@UAEXW4TPeninputDataType@@PAX@Z @ 178 NONAME ; void CPeninputCommonLayoutExt::SetData(enum TPeninputDataType, void *)
	?SetEditorTextL@CPeninputLayoutWindowExt@@QAEXABUTFepInputContextFieldData@@@Z @ 179 NONAME ; void CPeninputLayoutWindowExt::SetEditorTextL(struct TFepInputContextFieldData const &)
	?SetEnableSettingBtn@CPeninputLayoutWindowExt@@QAEXH@Z @ 180 NONAME ; void CPeninputLayoutWindowExt::SetEnableSettingBtn(int)
	?SetEnableSwitchToHwr@CPeninputLayoutWindowExt@@QAEXH@Z @ 181 NONAME ; void CPeninputLayoutWindowExt::SetEnableSwitchToHwr(int)
	?SetLafLayOut@CPeninputLayoutWindowExt@@MAEXHH@Z @ 182 NONAME ; void CPeninputLayoutWindowExt::SetLafLayOut(int, int)
	?SetSwitchBtnFont@CPeninputLayoutWindowExt@@IAEXAAVCAknFepCtrlEventButton@@@Z @ 183 NONAME ; void CPeninputLayoutWindowExt::SetSwitchBtnFont(class CAknFepCtrlEventButton &)
	?SetSwitchBtnTextColor@CPeninputLayoutWindowExt@@IAEXAAVCAknFepCtrlEventButton@@@Z @ 184 NONAME ; void CPeninputLayoutWindowExt::SetSwitchBtnTextColor(class CAknFepCtrlEventButton &)
	?SetTextIsSecret@CPeninputLayoutWindowExt@@QAEXH@Z @ 185 NONAME ; void CPeninputLayoutWindowExt::SetTextIsSecret(int)
	?SetVkbLayoutSize@CPeninputLayoutWindowExt@@MAEXXZ @ 186 NONAME ; void CPeninputLayoutWindowExt::SetVkbLayoutSize(void)
	?SetWindowRect@CPeninputLayoutWindowExt@@IAEXABVTRect@@@Z @ 187 NONAME ; void CPeninputLayoutWindowExt::SetWindowRect(class TRect const &)
	?SizeChanged@CPeninputCommonLayoutExt@@UAEHPBX@Z @ 188 NONAME ; int CPeninputCommonLayoutExt::SizeChanged(void const *)
	?SizeChanged@CPeninputLayoutWindowExt@@UAEXH@Z @ 189 NONAME ; void CPeninputLayoutWindowExt::SizeChanged(int)
	?SizeChangedForBaseWindow@CPeninputLayoutWindowExt@@MAEXH@Z @ 190 NONAME ; void CPeninputLayoutWindowExt::SizeChangedForBaseWindow(int)
	?UiStateMgr@CPeninputCommonLayoutExt@@QBEPAVMPeninputUiStateMgr@@XZ @ 191 NONAME ; class MPeninputUiStateMgr * CPeninputCommonLayoutExt::UiStateMgr(void) const
	?PenInputType@CPeninputCommonLayout@@UAEHXZ @ 192 NONAME ; int CPeninputCommonLayout::PenInputType(void)
	?PenInputType@CPeninputCommonLayoutExt@@UAEHXZ @ 193 NONAME ; int CPeninputCommonLayoutExt::PenInputType(void)
	?ChangeMergedButtonStatus@CPeninputLayoutWindowExt@@IAEXHH@Z @ 194 NONAME ; void CPeninputLayoutWindowExt::ChangeMergedButtonStatus(int, int)
	?HandleMergedBtnClicked@CPeninputLayoutWindowExt@@UAEXH@Z @ 195 NONAME ; void CPeninputLayoutWindowExt::HandleMergedBtnClicked(int)
	?ChangeToPreviousRange@CPeninputLayoutWindow@@MAEXH@Z @ 196 NONAME ; void CPeninputLayoutWindow::ChangeToPreviousRange(int)
	?IsCanChangeRange@CPeninputLayoutWindow@@MAEHH@Z @ 197 NONAME ; int CPeninputLayoutWindow::IsCanChangeRange(int)
	?IsMultiLineIcf@CPeninputLayoutWindow@@MAEHXZ @ 198 NONAME ; int CPeninputLayoutWindow::IsMultiLineIcf(void)
	?SetTextAlignmentL@CPeninputLayoutWindow@@QAEXH@Z @ 199 NONAME ; void CPeninputLayoutWindow::SetTextAlignmentL(int)
	?SetTextAlignmentL@CPeninputLayoutWindowExt@@QAEXH@Z @ 200 NONAME ; void CPeninputLayoutWindowExt::SetTextAlignmentL(int)
	?KeyMappingStringL@CPeninputNumericKepMappingMgr@@QBEPAVHBufC16@@HH@Z @ 201 NONAME ; class HBufC16 * CPeninputNumericKepMappingMgr::KeyMappingStringL(int, int) const
	?SetPositionFromOutside@CPeninputCommonLayout@@UAEXABVTPoint@@@Z @ 202 NONAME ; void CPeninputCommonLayout::SetPositionFromOutside(class TPoint const &)
	?SetPositionFromOutside@CPeninputCommonLayoutExt@@UAEXABVTPoint@@@Z @ 203 NONAME ; void CPeninputCommonLayoutExt::SetPositionFromOutside(class TPoint const &)
	?HandleShiftAndCapslockBtnClicked@CPeninputLayoutWindowExt@@UAEXXZ @ 204 NONAME ; void CPeninputLayoutWindowExt::HandleShiftAndCapslockBtnClicked(void)
	?EnableToneMarker@CPeninputLayoutWindowExt@@QAEXH@Z @ 205 NONAME ; void CPeninputLayoutWindowExt::EnableToneMarker(int)
