EXPORTS
	??0CButtonBase@@IAE@ABVTRect@@PAVCFepUiLayout@@H@Z @ 1 NONAME ; CButtonBase::CButtonBase(class TRect const &, class CFepUiLayout *, int)
	??0CCandidateWnd@@AAE@ABVTRect@@HPAVCFepUiLayout@@HVTTimeIntervalMicroSeconds32@@@Z @ 2 NONAME ; CCandidateWnd::CCandidateWnd(class TRect const &, int, class CFepUiLayout *, int, class TTimeIntervalMicroSeconds32)
	??0CControlGroup@@IAE@PAVCFepUiLayout@@H@Z @ 3 NONAME ; CControlGroup::CControlGroup(class CFepUiLayout *, int)
	??0CDragBar@@IAE@ABVTRect@@PAVCFepUiLayout@@H@Z @ 4 NONAME ; CDragBar::CDragBar(class TRect const &, class CFepUiLayout *, int)
	??0CFepFullScreenLayout@@QAE@PAVMLayoutOwner@@H@Z @ 5 NONAME ; CFepFullScreenLayout::CFepFullScreenLayout(class MLayoutOwner *, int)
	??0CFepInputContextField@@IAE@VTRect@@PAVCFepUiLayout@@H@Z @ 6 NONAME ; CFepInputContextField::CFepInputContextField(class TRect, class CFepUiLayout *, int)
	??0CFepLayoutChoiceList@@IAE@PAVCFepUiLayout@@H@Z @ 7 NONAME ; CFepLayoutChoiceList::CFepLayoutChoiceList(class CFepUiLayout *, int)
	??0CFepLayoutEditAreaBase@@IAE@VTRect@@PAVCFepUiLayout@@H@Z @ 8 NONAME ; CFepLayoutEditAreaBase::CFepLayoutEditAreaBase(class TRect, class CFepUiLayout *, int)
	??0CFepLayoutLatchButton@@IAE@ABVTRect@@PAVCFepUiLayout@@H@Z @ 9 NONAME ; CFepLayoutLatchButton::CFepLayoutLatchButton(class TRect const &, class CFepUiLayout *, int)
	??0CFepLayoutPopupWnd@@IAE@ABVTSize@@PAVCFepUiLayout@@H@Z @ 10 NONAME ; CFepLayoutPopupWnd::CFepLayoutPopupWnd(class TSize const &, class CFepUiLayout *, int)
	??0CFepUiBaseCtrl@@QAE@ABVTRect@@PAVCFepUiLayout@@H@Z @ 11 NONAME ; CFepUiBaseCtrl::CFepUiBaseCtrl(class TRect const &, class CFepUiLayout *, int)
	??0CFepUiLayout@@IAE@PAVMLayoutOwner@@@Z @ 12 NONAME ; CFepUiLayout::CFepUiLayout(class MLayoutOwner *)
	??0CHwrWndBase@@IAE@ABVTRect@@PAVCFepUiLayout@@H@Z @ 13 NONAME ; CHwrWndBase::CHwrWndBase(class TRect const &, class CFepUiLayout *, int)
	??0CTransparentHwrWnd@@IAE@ABVTRect@@PAVCFepUiLayout@@HH@Z @ 14 NONAME ; CTransparentHwrWnd::CTransparentHwrWnd(class TRect const &, class CFepUiLayout *, int, int)
	??0CTransparentHwrWndExt@@IAE@ABVTRect@@PAVCFepUiLayout@@HHH@Z @ 15 NONAME ; CTransparentHwrWndExt::CTransparentHwrWndExt(class TRect const &, class CFepUiLayout *, int, int, int)
	??0CVirtualItutKeypad@@IAE@ABVTRect@@PAVCFepUiLayout@@HABVTFontSpec@@@Z @ 16 NONAME ABSENT ; CVirtualItutKeypad::CVirtualItutKeypad(class TRect const &, class CFepUiLayout *, int, class TFontSpec const &)
	??0CVirtualKeyboard@@IAE@ABVTRect@@PAVCFepUiLayout@@HABVTFontSpec@@@Z @ 17 NONAME ABSENT ; CVirtualKeyboard::CVirtualKeyboard(class TRect const &, class CFepUiLayout *, int, class TFontSpec const &)
	??1CButtonBase@@UAE@XZ @ 18 NONAME ; CButtonBase::~CButtonBase(void)
	??1CCandidateWnd@@UAE@XZ @ 19 NONAME ; CCandidateWnd::~CCandidateWnd(void)
	??1CControlGroup@@UAE@XZ @ 20 NONAME ; CControlGroup::~CControlGroup(void)
	??1CDragBar@@UAE@XZ @ 21 NONAME ; CDragBar::~CDragBar(void)
	??1CFepFullScreenLayout@@UAE@XZ @ 22 NONAME ; CFepFullScreenLayout::~CFepFullScreenLayout(void)
	??1CFepInputContextField@@UAE@XZ @ 23 NONAME ; CFepInputContextField::~CFepInputContextField(void)
	??1CFepLayoutChoiceList@@UAE@XZ @ 24 NONAME ; CFepLayoutChoiceList::~CFepLayoutChoiceList(void)
	??1CFepLayoutEditAreaBase@@UAE@XZ @ 25 NONAME ; CFepLayoutEditAreaBase::~CFepLayoutEditAreaBase(void)
	??1CFepLayoutLatchButton@@UAE@XZ @ 26 NONAME ; CFepLayoutLatchButton::~CFepLayoutLatchButton(void)
	??1CFepLayoutPopupWnd@@UAE@XZ @ 27 NONAME ; CFepLayoutPopupWnd::~CFepLayoutPopupWnd(void)
	??1CFepUiBaseCtrl@@UAE@XZ @ 28 NONAME ; CFepUiBaseCtrl::~CFepUiBaseCtrl(void)
	??1CFepUiLayout@@UAE@XZ @ 29 NONAME ; CFepUiLayout::~CFepUiLayout(void)
	??1CHwrWndBase@@UAE@XZ @ 30 NONAME ; CHwrWndBase::~CHwrWndBase(void)
	??1CTransparentHwrWnd@@UAE@XZ @ 31 NONAME ; CTransparentHwrWnd::~CTransparentHwrWnd(void)
	??1CTransparentHwrWndExt@@UAE@XZ @ 32 NONAME ; CTransparentHwrWndExt::~CTransparentHwrWndExt(void)
	??1CVirtualItutKeypad@@UAE@XZ @ 33 NONAME ABSENT ; CVirtualItutKeypad::~CVirtualItutKeypad(void)
	??1CVirtualKey@@UAE@XZ @ 34 NONAME ; CVirtualKey::~CVirtualKey(void)
	??1CVirtualKeyboard@@UAE@XZ @ 35 NONAME ; CVirtualKeyboard::~CVirtualKeyboard(void)
	?ActiveControl@CControlGroup@@QAEPAVCFepUiBaseCtrl@@XZ @ 36 NONAME ; class CFepUiBaseCtrl * CControlGroup::ActiveControl(void)
	?AddControlL@CControlGroup@@QAEPAVCFepUiBaseCtrl@@PAVCCoeControl@@@Z @ 37 NONAME ; class CFepUiBaseCtrl * CControlGroup::AddControlL(class CCoeControl *)
	?AddControlL@CControlGroup@@QAEXPAVCFepUiBaseCtrl@@H@Z @ 38 NONAME ; void CControlGroup::AddControlL(class CFepUiBaseCtrl *, int)
	?AddControlL@CFepUiLayout@@QAEXPAVCCoeControl@@H@Z @ 39 NONAME ; void CFepUiLayout::AddControlL(class CCoeControl *, int)
	?AddControlL@CFepUiLayout@@QAEXPAVCFepUiBaseCtrl@@H@Z @ 40 NONAME ; void CFepUiLayout::AddControlL(class CFepUiBaseCtrl *, int)
	?AddEventObserver@CFepUiBaseCtrl@@QAEXPAVMEventObserver@@@Z @ 41 NONAME ; void CFepUiBaseCtrl::AddEventObserver(class MEventObserver *)
	?AddGuidingLine@CHwrWndBase@@QAEXABVTPoint@@0@Z @ 42 NONAME ; void CHwrWndBase::AddGuidingLine(class TPoint const &, class TPoint const &)
	?AddItemL@CFepLayoutChoiceList@@QAEXABUSItem@1@@Z @ 43 NONAME ; void CFepLayoutChoiceList::AddItemL(struct CFepLayoutChoiceList::SItem const &)
	?AddKeyHighLightBitmapL@CVirtualKeyboard@@QAEXPAVCFbsBitmap@@@Z @ 44 NONAME ; void CVirtualKeyboard::AddKeyHighLightBitmapL(class CFbsBitmap *)
	?AddKeyHighLightMaskBitmapL@CVirtualKeyboard@@QAEXPAVCFbsBitmap@@@Z @ 45 NONAME ; void CVirtualKeyboard::AddKeyHighLightMaskBitmapL(class CFbsBitmap *)
	?AddKeyL@CVirtualKeyboard@@QAEXPAVCVirtualKey@@@Z @ 46 NONAME ABSENT ; void CVirtualKeyboard::AddKeyL(class CVirtualKey *)
	?AddPositionObserver@CDragBar@@QAEXPAVMPositionObserver@@@Z @ 47 NONAME ; void CDragBar::AddPositionObserver(class MPositionObserver *)
	?AdjustSelectedCompositionText@CFepLayoutEditAreaBase@@UAEXAAH@Z @ 48 NONAME ; void CFepLayoutEditAreaBase::AdjustSelectedCompositionText(int &)
	?At@CControlGroup@@QAEPAVCFepUiBaseCtrl@@H@Z @ 49 NONAME ; class CFepUiBaseCtrl * CControlGroup::At(int)
	?BaseConstructL@CFepFullScreenLayout@@UAEXXZ @ 50 NONAME ; void CFepFullScreenLayout::BaseConstructL(void)
	?BaseConstructL@CFepLayoutEditAreaBase@@IAEXXZ @ 51 NONAME ; void CFepLayoutEditAreaBase::BaseConstructL(void)
	?BaseConstructL@CFepUiBaseCtrl@@QAEXXZ @ 52 NONAME ; void CFepUiBaseCtrl::BaseConstructL(void)
	?BaseConstructL@CFepUiLayout@@UAEXXZ @ 53 NONAME ; void CFepUiLayout::BaseConstructL(void)
	?Bitmap@CButtonBase@@QAEPAVCFbsBitmap@@W4TButtonBmpType@@H@Z @ 54 NONAME ; class CFbsBitmap * CButtonBase::Bitmap(enum TButtonBmpType, int)
	?CancelCharWriting@CHwrWndBase@@UAEXXZ @ 55 NONAME ; void CHwrWndBase::CancelCharWriting(void)
	?CancelPointerDownL@CControlGroup@@UAEXXZ @ 56 NONAME ; void CControlGroup::CancelPointerDownL(void)
	?CancelPointerDownL@CFepLayoutEditAreaBase@@UAEXXZ @ 57 NONAME ; void CFepLayoutEditAreaBase::CancelPointerDownL(void)
	?CancelPointerDownL@CFepUiBaseCtrl@@UAEXXZ @ 58 NONAME ; void CFepUiBaseCtrl::CancelPointerDownL(void)
	?CapturePointer@CFepUiBaseCtrl@@QAEPAV1@H@Z @ 59 NONAME ; class CFepUiBaseCtrl * CFepUiBaseCtrl::CapturePointer(int)
	?Clear@CFepUiBaseCtrl@@QAEXXZ @ 60 NONAME ; void CFepUiBaseCtrl::Clear(void)
	?ClearItemsL@CFepLayoutChoiceList@@QAEXXZ @ 61 NONAME ; void CFepLayoutChoiceList::ClearItemsL(void)
	?ClearRect@CFepUiBaseCtrl@@QAEXABVTRect@@@Z @ 62 NONAME ; void CFepUiBaseCtrl::ClearRect(class TRect const &)
	?ClearStroke@CHwrWndBase@@QAEXXZ @ 63 NONAME ABSENT ; void CHwrWndBase::ClearStroke(void)
	?CloseWindow@CFepLayoutPopupWnd@@QAEXXZ @ 64 NONAME ; void CFepLayoutPopupWnd::CloseWindow(void)
	?ConstructFromResourceL@CControlGroup@@UAEXXZ @ 65 NONAME ; void CControlGroup::ConstructFromResourceL(void)
	?ConstructFromResourceL@CFepUiBaseCtrl@@UAEXXZ @ 66 NONAME ; void CFepUiBaseCtrl::ConstructFromResourceL(void)
	?ConstructL@CCandidateWnd@@IAEXXZ @ 67 NONAME ; void CCandidateWnd::ConstructL(void)
	?ConstructL@CControlGroup@@IAEXXZ @ 68 NONAME ; void CControlGroup::ConstructL(void)
	?ConstructL@CDragBar@@IAEXXZ @ 69 NONAME ; void CDragBar::ConstructL(void)
	?ConstructL@CFepInputContextField@@IAEXXZ @ 70 NONAME ; void CFepInputContextField::ConstructL(void)
	?ConstructL@CFepLayoutPopupWnd@@IAEXXZ @ 71 NONAME ; void CFepLayoutPopupWnd::ConstructL(void)
	?ConstructL@CHwrWndBase@@IAEXXZ @ 72 NONAME ; void CHwrWndBase::ConstructL(void)
	?ConstructL@CVirtualItutKeypad@@IAEXXZ @ 73 NONAME ABSENT ; void CVirtualItutKeypad::ConstructL(void)
	?ConstructL@CVirtualKeyboard@@IAEXXZ @ 74 NONAME ; void CVirtualKeyboard::ConstructL(void)
	?Contains@CFepUiBaseCtrl@@QAEHABVTPoint@@@Z @ 75 NONAME ABSENT ; int CFepUiBaseCtrl::Contains(class TPoint const &) 
	?ControlById@CControlGroup@@QAEPAVCFepUiBaseCtrl@@H@Z @ 76 NONAME ; class CFepUiBaseCtrl * CControlGroup::ControlById(int)
	?ControlByType@CControlGroup@@QAEPAVCFepUiBaseCtrl@@HH@Z @ 77 NONAME ABSENT ; class CFepUiBaseCtrl * CControlGroup::ControlByType(int, int)
	?ControlForKindOfType@CControlGroup@@QAEPAVCFepUiBaseCtrl@@W4TStockBaseCtrlType@@H@Z @ 78 NONAME ; class CFepUiBaseCtrl * CControlGroup::ControlForKindOfType(enum TStockBaseCtrlType, int)
	?CreateKeyL@CVirtualKeyboard@@QAEXABVTDesC16@@IABVTRect@@1HHH@Z @ 79 NONAME ; void CVirtualKeyboard::CreateKeyL(class TDesC16 const &, unsigned int, class TRect const &, class TRect const &, int, int, int)
	?CreateKeyL@CVirtualKeyboard@@QAEXIIABVTRect@@0HHH@Z @ 80 NONAME ; void CVirtualKeyboard::CreateKeyL(unsigned int, unsigned int, class TRect const &, class TRect const &, int, int, int)
	?CursorVisible@CFepLayoutEditAreaBase@@QBEHXZ @ 81 NONAME ; int CFepLayoutEditAreaBase::CursorVisible(void) const
	?Destroy@CFepUiLayout@@UAEXXZ @ 82 NONAME ; void CFepUiLayout::Destroy(void)
	?DimKey@CVirtualKeyboard@@QAEXPAVCVirtualKey@@H@Z @ 83 NONAME ; void CVirtualKeyboard::DimKey(class CVirtualKey *, int)
	?Display@CFepLayoutPopupWnd@@QAEXABVTPoint@@@Z @ 84 NONAME ; void CFepLayoutPopupWnd::Display(class TPoint const &)
	?Draw@CButtonBase@@UAEXXZ @ 85 NONAME ; void CButtonBase::Draw(void)
	?Draw@CCandidateWnd@@UAEXXZ @ 86 NONAME ; void CCandidateWnd::Draw(void)
	?Draw@CControlGroup@@UAEXXZ @ 87 NONAME ; void CControlGroup::Draw(void)
	?Draw@CFepLayoutEditAreaBase@@UAEXXZ @ 88 NONAME ; void CFepLayoutEditAreaBase::Draw(void)
	?Draw@CFepLayoutLatchButton@@UAEXXZ @ 89 NONAME ; void CFepLayoutLatchButton::Draw(void)
	?Draw@CFepUiBaseCtrl@@UAEXXZ @ 90 NONAME ; void CFepUiBaseCtrl::Draw(void)
	?Draw@CFepUiLayout@@UAEXXZ @ 91 NONAME ; void CFepUiLayout::Draw(void)
	?Draw@CHwrWndBase@@UAEXXZ @ 92 NONAME ; void CHwrWndBase::Draw(void)
	?Draw@CInsertionPoint@@QAEXPAVCBitmapContext@@H@Z @ 93 NONAME ; void CInsertionPoint::Draw(class CBitmapContext *, int)
	?Draw@CTransparentHwrWnd@@UAEXXZ @ 94 NONAME ; void CTransparentHwrWnd::Draw(void)
	?Draw@CTransparentHwrWndExt@@UAEXXZ @ 95 NONAME ; void CTransparentHwrWndExt::Draw(void)
	?Draw@CVirtualKeyboard@@UAEXXZ @ 96 NONAME ; void CVirtualKeyboard::Draw(void)
	?DrawBitmap@CFepUiBaseCtrl@@IAEXPBVCFbsBitmap@@H@Z @ 97 NONAME ; void CFepUiBaseCtrl::DrawBitmap(class CFbsBitmap const *, int)
	?DrawContent@CFepLayoutEditAreaBase@@UAEXPAVCBitmapContext@@ABVTRect@@@Z @ 98 NONAME ; void CFepLayoutEditAreaBase::DrawContent(class CBitmapContext *, class TRect const &)
	?DrawShadow@CFepUiBaseCtrl@@IAEXXZ @ 99 NONAME ; void CFepUiBaseCtrl::DrawShadow(void)
	?DrawStroke@CHwrWndBase@@EAE?AVTRect@@H@Z @ 100 NONAME ; class TRect CHwrWndBase::DrawStroke(int)
	?DrawStroke@CTransparentHwrWnd@@EAE?AVTRect@@H@Z @ 101 NONAME ; class TRect CTransparentHwrWnd::DrawStroke(int)
	?EnableLayoutMoving@CFepUiLayout@@QAEXPAVCDragBar@@@Z @ 102 NONAME ; void CFepUiLayout::EnableLayoutMoving(class CDragBar *)
	?EnableTraceOutsideWindow@CTransparentHwrWnd@@QAEXH@Z @ 103 NONAME ; void CTransparentHwrWnd::EnableTraceOutsideWindow(int)
	?GetEditorFieldMaxLen@CFepLayoutEditAreaBase@@UAEHXZ @ 104 NONAME ; int CFepLayoutEditAreaBase::GetEditorFieldMaxLen(void)
	?GetInputContextFieldMaxLen@CFepUiLayout@@UAEHXZ @ 105 NONAME ; int CFepUiLayout::GetInputContextFieldMaxLen(void)
	?GetSelCandidate@CCandidateWnd@@QAEABVTDesC16@@XZ @ 106 NONAME ; class TDesC16 const & CCandidateWnd::GetSelCandidate(void)
	?HandleCommand@CFepUiLayout@@UAEHHPAE@Z @ 107 NONAME ; int CFepUiLayout::HandleCommand(int, unsigned char *)
	?HandleControlEvent@CDragBar@@UAEXHPAVCFepUiBaseCtrl@@ABVTDesC16@@@Z @ 108 NONAME ; void CDragBar::HandleControlEvent(int, class CFepUiBaseCtrl *, class TDesC16 const &)
	?HandleEventL@CFepFullScreenLayout@@UAEHW4TEventType@@PBX@Z @ 109 NONAME ; int CFepFullScreenLayout::HandleEventL(enum TEventType, void const *)
	?HandleEventL@CFepUiLayout@@UAEHW4TEventType@@PBX@Z @ 110 NONAME ; int CFepUiLayout::HandleEventL(enum TEventType, void const *)
	?HandlePointerDownEventL@CButtonBase@@MAEPAVCFepUiBaseCtrl@@ABVTPoint@@@Z @ 111 NONAME ; class CFepUiBaseCtrl * CButtonBase::HandlePointerDownEventL(class TPoint const &)
	?HandlePointerDownEventL@CCandidateWnd@@MAEPAVCFepUiBaseCtrl@@ABVTPoint@@@Z @ 112 NONAME ; class CFepUiBaseCtrl * CCandidateWnd::HandlePointerDownEventL(class TPoint const &)
	?HandlePointerDownEventL@CControlGroup@@MAEPAVCFepUiBaseCtrl@@ABVTPoint@@@Z @ 113 NONAME ; class CFepUiBaseCtrl * CControlGroup::HandlePointerDownEventL(class TPoint const &)
	?HandlePointerDownEventL@CDragBar@@MAEPAVCFepUiBaseCtrl@@ABVTPoint@@@Z @ 114 NONAME ; class CFepUiBaseCtrl * CDragBar::HandlePointerDownEventL(class TPoint const &)
	?HandlePointerDownEventL@CFepInputContextField@@MAEPAVCFepUiBaseCtrl@@ABVTPoint@@@Z @ 115 NONAME ; class CFepUiBaseCtrl * CFepInputContextField::HandlePointerDownEventL(class TPoint const &)
	?HandlePointerDownEventL@CFepLayoutChoiceList@@MAEPAVCFepUiBaseCtrl@@ABVTPoint@@@Z @ 116 NONAME ; class CFepUiBaseCtrl * CFepLayoutChoiceList::HandlePointerDownEventL(class TPoint const &)
	?HandlePointerDownEventL@CFepLayoutEditAreaBase@@UAEPAVCFepUiBaseCtrl@@ABVTPoint@@@Z @ 117 NONAME ; class CFepUiBaseCtrl * CFepLayoutEditAreaBase::HandlePointerDownEventL(class TPoint const &)
	?HandlePointerDownEventL@CFepLayoutLatchButton@@MAEPAVCFepUiBaseCtrl@@ABVTPoint@@@Z @ 118 NONAME ; class CFepUiBaseCtrl * CFepLayoutLatchButton::HandlePointerDownEventL(class TPoint const &)
	?HandlePointerDownEventL@CFepUiBaseCtrl@@UAEPAV1@ABVTPoint@@@Z @ 119 NONAME ; class CFepUiBaseCtrl * CFepUiBaseCtrl::HandlePointerDownEventL(class TPoint const &)
	?HandlePointerDownEventL@CHwrWndBase@@MAEPAVCFepUiBaseCtrl@@ABVTPoint@@@Z @ 120 NONAME ; class CFepUiBaseCtrl * CHwrWndBase::HandlePointerDownEventL(class TPoint const &)
	?HandlePointerDownEventL@CTransparentHwrWnd@@MAEPAVCFepUiBaseCtrl@@ABVTPoint@@@Z @ 121 NONAME ; class CFepUiBaseCtrl * CTransparentHwrWnd::HandlePointerDownEventL(class TPoint const &)
	?HandlePointerDownEventL@CVirtualItutKeypad@@EAEPAVCFepUiBaseCtrl@@ABVTPoint@@@Z @ 122 NONAME ABSENT ; class CFepUiBaseCtrl * CVirtualItutKeypad::HandlePointerDownEventL(class TPoint const &)
	?HandlePointerDownEventL@CVirtualKeyboard@@MAEPAVCFepUiBaseCtrl@@ABVTPoint@@@Z @ 123 NONAME ABSENT ; class CFepUiBaseCtrl * CVirtualKeyboard::HandlePointerDownEventL(class TPoint const &)
	?HandlePointerEnter@CButtonBase@@UAEXABVTPoint@@@Z @ 124 NONAME ; void CButtonBase::HandlePointerEnter(class TPoint const &)
	?HandlePointerEnter@CControlGroup@@UAEXABVTPoint@@@Z @ 125 NONAME ; void CControlGroup::HandlePointerEnter(class TPoint const &)
	?HandlePointerEnter@CFepLayoutLatchButton@@UAEXABVTPoint@@@Z @ 126 NONAME ; void CFepLayoutLatchButton::HandlePointerEnter(class TPoint const &)
	?HandlePointerEnter@CFepUiBaseCtrl@@UAEXABVTPoint@@@Z @ 127 NONAME ; void CFepUiBaseCtrl::HandlePointerEnter(class TPoint const &)
	?HandlePointerLeave@CButtonBase@@UAEXABVTPoint@@@Z @ 128 NONAME ; void CButtonBase::HandlePointerLeave(class TPoint const &)
	?HandlePointerLeave@CCandidateWnd@@UAEXABVTPoint@@@Z @ 129 NONAME ; void CCandidateWnd::HandlePointerLeave(class TPoint const &)
	?HandlePointerLeave@CControlGroup@@UAEXABVTPoint@@@Z @ 130 NONAME ; void CControlGroup::HandlePointerLeave(class TPoint const &)
	?HandlePointerLeave@CFepLayoutEditAreaBase@@UAEXABVTPoint@@@Z @ 131 NONAME ; void CFepLayoutEditAreaBase::HandlePointerLeave(class TPoint const &)
	?HandlePointerLeave@CFepLayoutLatchButton@@UAEXABVTPoint@@@Z @ 132 NONAME ; void CFepLayoutLatchButton::HandlePointerLeave(class TPoint const &)
	?HandlePointerLeave@CFepUiBaseCtrl@@UAEXABVTPoint@@@Z @ 133 NONAME ; void CFepUiBaseCtrl::HandlePointerLeave(class TPoint const &)
	?HandlePointerLeave@CVirtualKeyboard@@MAEXABVTPoint@@@Z @ 134 NONAME ABSENT ; void CVirtualKeyboard::HandlePointerLeave(class TPoint const &)
	?HandlePointerMoveEventL@CButtonBase@@MAEPAVCFepUiBaseCtrl@@ABVTPoint@@@Z @ 135 NONAME ; class CFepUiBaseCtrl * CButtonBase::HandlePointerMoveEventL(class TPoint const &)
	?HandlePointerMoveEventL@CCandidateWnd@@MAEPAVCFepUiBaseCtrl@@ABVTPoint@@@Z @ 136 NONAME ; class CFepUiBaseCtrl * CCandidateWnd::HandlePointerMoveEventL(class TPoint const &)
	?HandlePointerMoveEventL@CControlGroup@@MAEPAVCFepUiBaseCtrl@@ABVTPoint@@@Z @ 137 NONAME ; class CFepUiBaseCtrl * CControlGroup::HandlePointerMoveEventL(class TPoint const &)
	?HandlePointerMoveEventL@CDragBar@@MAEPAVCFepUiBaseCtrl@@ABVTPoint@@@Z @ 138 NONAME ; class CFepUiBaseCtrl * CDragBar::HandlePointerMoveEventL(class TPoint const &)
	?HandlePointerMoveEventL@CFepLayoutChoiceList@@MAEPAVCFepUiBaseCtrl@@ABVTPoint@@@Z @ 139 NONAME ; class CFepUiBaseCtrl * CFepLayoutChoiceList::HandlePointerMoveEventL(class TPoint const &)
	?HandlePointerMoveEventL@CFepLayoutEditAreaBase@@UAEPAVCFepUiBaseCtrl@@ABVTPoint@@@Z @ 140 NONAME ; class CFepUiBaseCtrl * CFepLayoutEditAreaBase::HandlePointerMoveEventL(class TPoint const &)
	?HandlePointerMoveEventL@CFepUiBaseCtrl@@UAEPAV1@ABVTPoint@@@Z @ 141 NONAME ; class CFepUiBaseCtrl * CFepUiBaseCtrl::HandlePointerMoveEventL(class TPoint const &)
	?HandlePointerMoveEventL@CHwrWndBase@@MAEPAVCFepUiBaseCtrl@@ABVTPoint@@@Z @ 142 NONAME ; class CFepUiBaseCtrl * CHwrWndBase::HandlePointerMoveEventL(class TPoint const &)
	?HandlePointerMoveEventL@CTransparentHwrWnd@@MAEPAVCFepUiBaseCtrl@@ABVTPoint@@@Z @ 143 NONAME ; class CFepUiBaseCtrl * CTransparentHwrWnd::HandlePointerMoveEventL(class TPoint const &)
	?HandlePointerMoveEventL@CVirtualItutKeypad@@EAEPAVCFepUiBaseCtrl@@ABVTPoint@@@Z @ 144 NONAME ABSENT ; class CFepUiBaseCtrl * CVirtualItutKeypad::HandlePointerMoveEventL(class TPoint const &)
	?HandlePointerMoveEventL@CVirtualKeyboard@@MAEPAVCFepUiBaseCtrl@@ABVTPoint@@@Z @ 145 NONAME ; class CFepUiBaseCtrl * CVirtualKeyboard::HandlePointerMoveEventL(class TPoint const &)
	?HandlePointerUpEventL@CButtonBase@@MAEPAVCFepUiBaseCtrl@@ABVTPoint@@@Z @ 146 NONAME ; class CFepUiBaseCtrl * CButtonBase::HandlePointerUpEventL(class TPoint const &)
	?HandlePointerUpEventL@CCandidateWnd@@MAEPAVCFepUiBaseCtrl@@ABVTPoint@@@Z @ 147 NONAME ; class CFepUiBaseCtrl * CCandidateWnd::HandlePointerUpEventL(class TPoint const &)
	?HandlePointerUpEventL@CControlGroup@@MAEPAVCFepUiBaseCtrl@@ABVTPoint@@@Z @ 148 NONAME ; class CFepUiBaseCtrl * CControlGroup::HandlePointerUpEventL(class TPoint const &)
	?HandlePointerUpEventL@CDragBar@@MAEPAVCFepUiBaseCtrl@@ABVTPoint@@@Z @ 149 NONAME ; class CFepUiBaseCtrl * CDragBar::HandlePointerUpEventL(class TPoint const &)
	?HandlePointerUpEventL@CFepInputContextField@@MAEPAVCFepUiBaseCtrl@@ABVTPoint@@@Z @ 150 NONAME ; class CFepUiBaseCtrl * CFepInputContextField::HandlePointerUpEventL(class TPoint const &)
	?HandlePointerUpEventL@CFepLayoutChoiceList@@MAEPAVCFepUiBaseCtrl@@ABVTPoint@@@Z @ 151 NONAME ; class CFepUiBaseCtrl * CFepLayoutChoiceList::HandlePointerUpEventL(class TPoint const &)
	?HandlePointerUpEventL@CFepLayoutEditAreaBase@@UAEPAVCFepUiBaseCtrl@@ABVTPoint@@@Z @ 152 NONAME ; class CFepUiBaseCtrl * CFepLayoutEditAreaBase::HandlePointerUpEventL(class TPoint const &)
	?HandlePointerUpEventL@CFepLayoutLatchButton@@MAEPAVCFepUiBaseCtrl@@ABVTPoint@@@Z @ 153 NONAME ; class CFepUiBaseCtrl * CFepLayoutLatchButton::HandlePointerUpEventL(class TPoint const &)
	?HandlePointerUpEventL@CFepUiBaseCtrl@@UAEPAV1@ABVTPoint@@@Z @ 154 NONAME ; class CFepUiBaseCtrl * CFepUiBaseCtrl::HandlePointerUpEventL(class TPoint const &)
	?HandlePointerUpEventL@CHwrWndBase@@MAEPAVCFepUiBaseCtrl@@ABVTPoint@@@Z @ 155 NONAME ; class CFepUiBaseCtrl * CHwrWndBase::HandlePointerUpEventL(class TPoint const &)
	?HandlePointerUpEventL@CTransparentHwrWnd@@MAEPAVCFepUiBaseCtrl@@ABVTPoint@@@Z @ 156 NONAME ; class CFepUiBaseCtrl * CTransparentHwrWnd::HandlePointerUpEventL(class TPoint const &)
	?HandlePointerUpEventL@CVirtualItutKeypad@@EAEPAVCFepUiBaseCtrl@@ABVTPoint@@@Z @ 157 NONAME ABSENT ; class CFepUiBaseCtrl * CVirtualItutKeypad::HandlePointerUpEventL(class TPoint const &)
	?HandlePointerUpEventL@CVirtualKeyboard@@MAEPAVCFepUiBaseCtrl@@ABVTPoint@@@Z @ 158 NONAME ABSENT ; class CFepUiBaseCtrl * CVirtualKeyboard::HandlePointerUpEventL(class TPoint const &)
	?HandlePositionChange@CFepUiBaseCtrl@@UAEHABVTPoint@@@Z @ 159 NONAME ; int CFepUiBaseCtrl::HandlePositionChange(class TPoint const &)
	?HandleRawKeyEventL@CFepUiLayout@@EAEHABVTRawEvent@@@Z @ 160 NONAME ; int CFepUiLayout::HandleRawKeyEventL(class TRawEvent const &)
	?HandleTimerOut@CCandidateWnd@@UAEXH@Z @ 161 NONAME ; void CCandidateWnd::HandleTimerOut(int)
	?HandleTimerOut@CDragBar@@UAEXH@Z @ 162 NONAME ; void CDragBar::HandleTimerOut(int)
	?HandleTimerOut@CFepFullScreenLayout@@UAEXH@Z @ 163 NONAME ; void CFepFullScreenLayout::HandleTimerOut(int)
	?HandleTimerOut@CHwrWndBase@@UAEXH@Z @ 164 NONAME ; void CHwrWndBase::HandleTimerOut(int)
	?Hide@CControlGroup@@UAEXH@Z @ 165 NONAME ; void CControlGroup::Hide(int)
	?Hide@CFepUiBaseCtrl@@UAEXH@Z @ 166 NONAME ; void CFepUiBaseCtrl::Hide(int)
	?HideControl@CControlGroup@@QAEXHH@Z @ 167 NONAME ; void CControlGroup::HideControl(int, int)
	?HideControl@CControlGroup@@QAEXPAVCFepUiBaseCtrl@@H@Z @ 168 NONAME ; void CControlGroup::HideControl(class CFepUiBaseCtrl *, int)
	?HideGuideLine@CTransparentHwrWndExt@@QAEXH@Z @ 169 NONAME ; void CTransparentHwrWndExt::HideGuideLine(int)
	?HitTest@CFepLayoutChoiceList@@MAEHABVTPoint@@@Z @ 170 NONAME ; int CFepLayoutChoiceList::HitTest(class TPoint const &)
	?Init@CFepFullScreenLayout@@UAE?AVTRect@@XZ @ 171 NONAME ; class TRect CFepFullScreenLayout::Init(void)
	?Init@CFepUiLayout@@UAE?AVTRect@@XZ @ 172 NONAME ; class TRect CFepUiLayout::Init(void)
	?InsertItemL@CFepLayoutChoiceList@@QAEXHABUSItem@1@@Z @ 173 NONAME ; void CFepLayoutChoiceList::InsertItemL(int, struct CFepLayoutChoiceList::SItem const &)
	?IsDraggingComponent@CDragBar@@QAEHPAVCFepUiBaseCtrl@@@Z @ 174 NONAME ; int CDragBar::IsDraggingComponent(class CFepUiBaseCtrl *)
	?IsFepBaseControl@CFepUiBaseCtrl@@UAEHXZ @ 175 NONAME ; int CFepUiBaseCtrl::IsFepBaseControl(void)
	?IsFocused@CFepLayoutEditAreaBase@@QAEHXZ @ 176 NONAME ; int CFepLayoutEditAreaBase::IsFocused(void)
	?IsHwrNewCharacter@CFepFullScreenLayout@@MAEHXZ @ 177 NONAME ; int CFepFullScreenLayout::IsHwrNewCharacter(void)
	?IsValidDestination@CDragBar@@IAEHABVTPoint@@AAH1@Z @ 178 NONAME ; int CDragBar::IsValidDestination(class TPoint const &, int &, int &)
	?IsValidDestination@CFepUiLayout@@UAEHABVTRect@@PAVCDragBar@@AAH2H@Z @ 179 NONAME ; int CFepUiLayout::IsValidDestination(class TRect const &, class CDragBar *, int &, int &, int)
	?IsValidStroke@CFepFullScreenLayout@@MAEHXZ @ 180 NONAME ; int CFepFullScreenLayout::IsValidStroke(void)
	?ItemByCommand@CFepLayoutChoiceList@@QAEPBUSItem@1@H@Z @ 181 NONAME ABSENT ; struct CFepLayoutChoiceList::SItem const * CFepLayoutChoiceList::ItemByCommand(int)
	?ItemByIndex@CFepLayoutChoiceList@@QAEPBUSItem@1@H@Z @ 182 NONAME ; struct CFepLayoutChoiceList::SItem const * CFepLayoutChoiceList::ItemByIndex(int)
	?LockArea@CFepUiLayout@@QAEXABVTRect@@PAVCFepUiBaseCtrl@@@Z @ 183 NONAME ; void CFepUiLayout::LockArea(class TRect const &, class CFepUiBaseCtrl *)
	?Move@CCandidateWnd@@UAEXABVTPoint@@@Z @ 184 NONAME ; void CCandidateWnd::Move(class TPoint const &)
	?Move@CControlGroup@@UAEXABVTPoint@@@Z @ 185 NONAME ; void CControlGroup::Move(class TPoint const &)
	?Move@CDragBar@@UAEXABVTPoint@@@Z @ 186 NONAME ; void CDragBar::Move(class TPoint const &)
	?Move@CFepLayoutEditAreaBase@@UAEXABVTPoint@@@Z @ 187 NONAME ; void CFepLayoutEditAreaBase::Move(class TPoint const &)
	?Move@CFepUiBaseCtrl@@UAEXABVTPoint@@@Z @ 188 NONAME ; void CFepUiBaseCtrl::Move(class TPoint const &)
	?MovingArea@CFepUiBaseCtrl@@UAEABVTRect@@XZ @ 189 NONAME ; class TRect const & CFepUiBaseCtrl::MovingArea(void)
	?NewL@CButtonBase@@SAPAV1@ABVTRect@@PAVCFepUiLayout@@H@Z @ 190 NONAME ; class CButtonBase * CButtonBase::NewL(class TRect const &, class CFepUiLayout *, int)
	?NewL@CCandidateWnd@@SAPAV1@ABVTRect@@HPAVCFepUiLayout@@HVTTimeIntervalMicroSeconds32@@@Z @ 191 NONAME ; class CCandidateWnd * CCandidateWnd::NewL(class TRect const &, int, class CFepUiLayout *, int, class TTimeIntervalMicroSeconds32)
	?NewL@CControlGroup@@SAPAV1@PAVCFepUiLayout@@H@Z @ 192 NONAME ABSENT ; class CControlGroup * CControlGroup::NewL(class CFepUiLayout *, int)
	?NewL@CDragBar@@SAPAV1@ABVTRect@@PAVCFepUiLayout@@H@Z @ 193 NONAME ; class CDragBar * CDragBar::NewL(class TRect const &, class CFepUiLayout *, int)
	?NewL@CFepInputContextField@@SAPAV1@VTRect@@PAVCFepUiLayout@@H@Z @ 194 NONAME ; class CFepInputContextField * CFepInputContextField::NewL(class TRect, class CFepUiLayout *, int)
	?NewL@CFepLayoutChoiceList@@SAPAV1@PAVCFepUiLayout@@H@Z @ 195 NONAME ; class CFepLayoutChoiceList * CFepLayoutChoiceList::NewL(class CFepUiLayout *, int)
	?NewL@CFepLayoutLatchButton@@SAPAV1@ABVTRect@@PAVCFepUiLayout@@H@Z @ 196 NONAME ; class CFepLayoutLatchButton * CFepLayoutLatchButton::NewL(class TRect const &, class CFepUiLayout *, int)
	?NewL@CTransparentHwrWnd@@SAPAV1@ABVTRect@@PAVCFepUiLayout@@HH@Z @ 197 NONAME ; class CTransparentHwrWnd * CTransparentHwrWnd::NewL(class TRect const &, class CFepUiLayout *, int, int)
	?NewL@CTransparentHwrWndExt@@SAPAV1@ABVTRect@@PAVCFepUiLayout@@HHH@Z @ 198 NONAME ; class CTransparentHwrWndExt * CTransparentHwrWndExt::NewL(class TRect const &, class CFepUiLayout *, int, int, int)
	?NewL@CVirtualItutKeypad@@SAPAV1@ABVTRect@@PAVCFepUiLayout@@HABVTFontSpec@@@Z @ 199 NONAME ABSENT ; class CVirtualItutKeypad * CVirtualItutKeypad::NewL(class TRect const &, class CFepUiLayout *, int, class TFontSpec const &)
	?NewL@CVirtualItutKeypad@@SAPAV1@ABVTRect@@PAVCFepUiLayout@@HPAVCFont@@@Z @ 200 NONAME ABSENT ; class CVirtualItutKeypad * CVirtualItutKeypad::NewL(class TRect const &, class CFepUiLayout *, int, class CFont *)
	?NewL@CVirtualKey@@SAPAV1@ABVTDesC16@@HABVTRect@@1HHH@Z @ 201 NONAME ; class CVirtualKey * CVirtualKey::NewL(class TDesC16 const &, int, class TRect const &, class TRect const &, int, int, int)
	?NewL@CVirtualKey@@SAPAV1@IHABVTRect@@0HHH@Z @ 202 NONAME ; class CVirtualKey * CVirtualKey::NewL(unsigned int, int, class TRect const &, class TRect const &, int, int, int)
	?NewL@CVirtualKeyboard@@SAPAV1@ABVTRect@@PAVCFepUiLayout@@HABVTFontSpec@@@Z @ 203 NONAME ABSENT ; class CVirtualKeyboard * CVirtualKeyboard::NewL(class TRect const &, class CFepUiLayout *, int, class TFontSpec const &)
	?NewL@CVirtualKeyboard@@SAPAV1@ABVTRect@@PAVCFepUiLayout@@HPAVCFont@@@Z @ 204 NONAME ABSENT ; class CVirtualKeyboard * CVirtualKeyboard::NewL(class TRect const &, class CFepUiLayout *, int, class CFont *)
	?NewL@CFepLayoutChoiceList@@SAPAV1@PAVCFepUiLayout@@HPAVCEikListBox@@@Z @ 205 NONAME ABSENT
	?NumOfControls@CControlGroup@@QAEHXZ @ 206 NONAME ; int CControlGroup::NumOfControls(void)
	?OnActivate@CCandidateWnd@@UAEXXZ @ 207 NONAME ; void CCandidateWnd::OnActivate(void)
	?OnActivate@CControlGroup@@UAEXXZ @ 208 NONAME ; void CControlGroup::OnActivate(void)
	?OnActivate@CFepLayoutEditAreaBase@@UAEXXZ @ 209 NONAME ; void CFepLayoutEditAreaBase::OnActivate(void)
	?OnActivate@CFepUiBaseCtrl@@UAEXXZ @ 210 NONAME ; void CFepUiBaseCtrl::OnActivate(void)
	?OnActivate@CFepUiLayout@@UAEXXZ @ 211 NONAME ; void CFepUiLayout::OnActivate(void)
	?OnActivate@CFepUiLayoutRootCtrl@@UAEXXZ @ 212 NONAME ; void CFepUiLayoutRootCtrl::OnActivate(void)
	?OnAppEditorTextComing@CFepUiLayout@@UAEHABUTFepInputContextFieldData@@@Z @ 213 NONAME ; int CFepUiLayout::OnAppEditorTextComing(struct TFepInputContextFieldData const &)
	?OnDeActivate@CCandidateWnd@@UAEXXZ @ 214 NONAME ; void CCandidateWnd::OnDeActivate(void)
	?OnDeActivate@CControlGroup@@UAEXXZ @ 215 NONAME ; void CControlGroup::OnDeActivate(void)
	?OnDeActivate@CDragBar@@UAEXXZ @ 216 NONAME ; void CDragBar::OnDeActivate(void)
	?OnDeActivate@CFepLayoutEditAreaBase@@UAEXXZ @ 217 NONAME ; void CFepLayoutEditAreaBase::OnDeActivate(void)
	?OnDeActivate@CFepUiBaseCtrl@@UAEXXZ @ 218 NONAME ; void CFepUiBaseCtrl::OnDeActivate(void)
	?OnDeActivate@CFepUiLayout@@UAEXXZ @ 219 NONAME ; void CFepUiLayout::OnDeActivate(void)
	?OnDeActivate@CFepUiLayoutRootCtrl@@UAEXXZ @ 220 NONAME ; void CFepUiLayoutRootCtrl::OnDeActivate(void)
	?OnDeActivate@CHwrWndBase@@UAEXXZ @ 221 NONAME ; void CHwrWndBase::OnDeActivate(void)
	?OnDisplay@CFepLayoutPopupWnd@@EAEXXZ @ 222 NONAME ; void CFepLayoutPopupWnd::OnDisplay(void)
	?OnLayoutDraggingEnd@CCandidateWnd@@UAEXXZ @ 223 NONAME ; void CCandidateWnd::OnLayoutDraggingEnd(void)
	?OnLayoutDraggingEnd@CControlGroup@@UAEXXZ @ 224 NONAME ; void CControlGroup::OnLayoutDraggingEnd(void)
	?OnLayoutDraggingEnd@CFepLayoutEditAreaBase@@UAEXXZ @ 225 NONAME ; void CFepLayoutEditAreaBase::OnLayoutDraggingEnd(void)
	?OnLayoutDraggingEnd@CFepUiBaseCtrl@@UAEXXZ @ 226 NONAME ; void CFepUiBaseCtrl::OnLayoutDraggingEnd(void)
	?OnLayoutDraggingEnd@CHwrWndBase@@UAEXXZ @ 227 NONAME ; void CHwrWndBase::OnLayoutDraggingEnd(void)
	?OnLayoutDraggingStart@CCandidateWnd@@UAEXXZ @ 228 NONAME ; void CCandidateWnd::OnLayoutDraggingStart(void)
	?OnLayoutDraggingStart@CControlGroup@@UAEXXZ @ 229 NONAME ; void CControlGroup::OnLayoutDraggingStart(void)
	?OnLayoutDraggingStart@CFepLayoutEditAreaBase@@UAEXXZ @ 230 NONAME ; void CFepLayoutEditAreaBase::OnLayoutDraggingStart(void)
	?OnLayoutDraggingStart@CFepUiBaseCtrl@@UAEXXZ @ 231 NONAME ; void CFepUiBaseCtrl::OnLayoutDraggingStart(void)
	?OnLayoutDraggingStart@CHwrWndBase@@UAEXXZ @ 232 NONAME ; void CHwrWndBase::OnLayoutDraggingStart(void)
	?OnPointerEventOutsideLayout@CFepUiLayout@@EAEHABVTRawEvent@@@Z @ 233 NONAME ; int CFepUiLayout::OnPointerEventOutsideLayout(class TRawEvent const &)
	?OnResourceChange@CFepUiLayout@@UAEHH@Z @ 234 NONAME ; int CFepUiLayout::OnResourceChange(int)
	?OnSkinChange@CFepUiLayout@@MAEHXZ @ 235 NONAME ; int CFepUiLayout::OnSkinChange(void)
	?Position@CFepUiLayout@@UAE?AVTPoint@@XZ @ 236 NONAME ; class TPoint CFepUiLayout::Position(void)
	?PositionInDisplayText@CFepLayoutEditAreaBase@@IBEHH@Z @ 237 NONAME ; int CFepLayoutEditAreaBase::PositionInDisplayText(int) const
	?PositionInWindow@CFepLayoutEditAreaBase@@IAE?AVTPoint@@H@Z @ 238 NONAME ; class TPoint CFepLayoutEditAreaBase::PositionInWindow(int)
	?PositionOfInsertionPointOnWindow@CFepLayoutEditAreaBase@@QAE?AVTPoint@@XZ @ 239 NONAME ; class TPoint CFepLayoutEditAreaBase::PositionOfInsertionPointOnWindow(void)
	?PrepareForFocusGain@CFepLayoutEditAreaBase@@MAEHXZ @ 240 NONAME ; int CFepLayoutEditAreaBase::PrepareForFocusGain(void)
	?PrepareForFocusLoss@CFepLayoutEditAreaBase@@MAEXXZ @ 241 NONAME ; void CFepLayoutEditAreaBase::PrepareForFocusLoss(void)
	?ReDrawRect@CControlGroup@@UAEXABVTRect@@@Z @ 242 NONAME ; void CControlGroup::ReDrawRect(class TRect const &)
	?ReDrawRect@CFepUiBaseCtrl@@UAEXABVTRect@@@Z @ 243 NONAME ; void CFepUiBaseCtrl::ReDrawRect(class TRect const &)
	?Rect@CFepUiLayout@@UAE?AVTRect@@XZ @ 244 NONAME ; class TRect CFepUiLayout::Rect(void)
	?RefreshUI@CTransparentHwrWndExt@@QAEXXZ @ 245 NONAME ; void CTransparentHwrWndExt::RefreshUI(void)
	?RemoveControl@CControlGroup@@QAEHPAVCFepUiBaseCtrl@@@Z @ 246 NONAME ; int CControlGroup::RemoveControl(class CFepUiBaseCtrl *)
	?RemoveControl@CFepUiLayout@@QAEXPAVCFepUiBaseCtrl@@@Z @ 247 NONAME ; void CFepUiLayout::RemoveControl(class CFepUiBaseCtrl *)
	?RemoveEventObserver@CFepUiBaseCtrl@@QAEXPAVMEventObserver@@@Z @ 248 NONAME ; void CFepUiBaseCtrl::RemoveEventObserver(class MEventObserver *)
	?RemoveItemByCommand@CFepLayoutChoiceList@@QAEXH@Z @ 249 NONAME ; void CFepLayoutChoiceList::RemoveItemByCommand(int)
	?RemoveItemByIndex@CFepLayoutChoiceList@@QAEXH@Z @ 250 NONAME ; void CFepLayoutChoiceList::RemoveItemByIndex(int)
	?RemovePositionObserver@CDragBar@@QAEXPAVMPositionObserver@@@Z @ 251 NONAME ; void CDragBar::RemovePositionObserver(class MPositionObserver *)
	?ReportEvent@CFepUiBaseCtrl@@QAEXHABVTDesC16@@@Z @ 252 NONAME ; void CFepUiBaseCtrl::ReportEvent(int, class TDesC16 const &)
	?ReportKeyEvent@CVirtualKeyboard@@EAEXW4TVirtualKeyEvent@1@@Z @ 253 NONAME ABSENT ; void CVirtualKeyboard::ReportKeyEvent(enum CVirtualKeyboard::TVirtualKeyEvent)
	?RequireRegionUpdateL@CFepUiBaseCtrl@@QAEXH@Z @ 254 NONAME ; void CFepUiBaseCtrl::RequireRegionUpdateL(int)
	?RequireRegionUpdateL@CFepUiLayoutRootCtrl@@QAEXPAVCFepUiBaseCtrl@@H@Z @ 255 NONAME ; void CFepUiLayoutRootCtrl::RequireRegionUpdateL(class CFepUiBaseCtrl *, int)
	?ResetBmpPool@CButtonBase@@QAEXXZ @ 256 NONAME ; void CButtonBase::ResetBmpPool(void)
	?SemiTransparencyRequired@CFepFullScreenLayout@@UAEHXZ @ 257 NONAME ; int CFepFullScreenLayout::SemiTransparencyRequired(void)
	?SemiTransparencyRequired@CFepUiLayout@@UAEHXZ @ 258 NONAME ; int CFepUiLayout::SemiTransparencyRequired(void)
	?SetActive@CButtonBase@@UAEXH@Z @ 259 NONAME ; void CButtonBase::SetActive(int)
	?SetActive@CFepUiBaseCtrl@@UAEXH@Z @ 260 NONAME ; void CFepUiBaseCtrl::SetActive(int)
	?SetActiveCtrl@CControlGroup@@QAEPAVCFepUiBaseCtrl@@H@Z @ 261 NONAME ; class CFepUiBaseCtrl * CControlGroup::SetActiveCtrl(int)
	?SetActiveCtrl@CControlGroup@@UAEPAVCFepUiBaseCtrl@@PAV2@@Z @ 262 NONAME ; class CFepUiBaseCtrl * CControlGroup::SetActiveCtrl(class CFepUiBaseCtrl *)
	?SetAppEditorCursor@CFepUiLayout@@UAEXABVTCursorSelection@@H@Z @ 263 NONAME ; void CFepUiLayout::SetAppEditorCursor(class TCursorSelection const &, int)
	?SetAutoHideDelay@CCandidateWnd@@QAEXVTTimeIntervalMicroSeconds32@@@Z @ 264 NONAME ; void CCandidateWnd::SetAutoHideDelay(class TTimeIntervalMicroSeconds32)
	?SetBackgroundBitmapL@CFepUiBaseCtrl@@UAEXPAVCFbsBitmap@@@Z @ 265 NONAME ; void CFepUiBaseCtrl::SetBackgroundBitmapL(class CFbsBitmap *)
	?SetBackgroundMaskBitmapL@CFepUiBaseCtrl@@UAEXPAVCFbsBitmap@@@Z @ 266 NONAME ; void CFepUiBaseCtrl::SetBackgroundMaskBitmapL(class CFbsBitmap *)
	?SetBitmapL@CButtonBase@@QAEXPAVCFbsBitmap@@W4TButtonBmpType@@@Z @ 267 NONAME ; void CButtonBase::SetBitmapL(class CFbsBitmap *, enum TButtonBmpType)
	?SetBitmapL@CDragBar@@QAEXPAVCFbsBitmap@@W4TButtonBmpType@@@Z @ 268 NONAME ; void CDragBar::SetBitmapL(class CFbsBitmap *, enum TButtonBmpType)
	?SetBottomGuideLinePosition@CTransparentHwrWndExt@@QAEXABVTPoint@@0@Z @ 269 NONAME ; void CTransparentHwrWndExt::SetBottomGuideLinePosition(class TPoint const &, class TPoint const &)
	?SetCandidateL@CCandidateWnd@@UAEXABV?$RPointerArray@VHBufC16@@@@@Z @ 270 NONAME ; void CCandidateWnd::SetCandidateL(class RPointerArray<class HBufC16> const &)
	?SetCandidateNumL@CCandidateWnd@@QAEXH@Z @ 271 NONAME ; void CCandidateWnd::SetCandidateNumL(int)
	?SetCandidateNumL@CCandidateWnd@@QAEXHABVTSize@@ABVTRect@@@Z @ 272 NONAME ; void CCandidateWnd::SetCandidateNumL(int, class TSize const &, class TRect const &)
	?SetCaptionL@CButtonBase@@QAEXABVTDesC16@@@Z @ 273 NONAME ; void CButtonBase::SetCaptionL(class TDesC16 const &)
	?SetCursorVisible@CFepLayoutEditAreaBase@@QAEXHH@Z @ 274 NONAME ; void CFepLayoutEditAreaBase::SetCursorVisible(int, int)
	?SetDimmed@CButtonBase@@QAEXH@Z @ 275 NONAME ; void CButtonBase::SetDimmed(int)
	?SetDimmed@CFepLayoutEditAreaBase@@QAEXH@Z @ 276 NONAME ; void CFepLayoutEditAreaBase::SetDimmed(int)
	?SetFocus@CFepLayoutEditAreaBase@@QAEXH@Z @ 277 NONAME ; void CFepLayoutEditAreaBase::SetFocus(int)
	?SetFocusBmp@CFepLayoutChoiceList@@QAEXPAVCFbsBitmap@@@Z @ 278 NONAME ; void CFepLayoutChoiceList::SetFocusBmp(class CFbsBitmap *)
	?SetFocusBmpMask@CFepLayoutChoiceList@@QAEXPAVCFbsBitmap@@@Z @ 279 NONAME ; void CFepLayoutChoiceList::SetFocusBmpMask(class CFbsBitmap *)
	?SetFont@CButtonBase@@QAEXABVTFontSpec@@@Z @ 280 NONAME ; void CButtonBase::SetFont(class TFontSpec const &)
	?SetFont@CButtonBase@@QAEXPBVCFont@@@Z @ 281 NONAME ; void CButtonBase::SetFont(class CFont const *)
	?SetFont@CCandidateWnd@@QAEXABVTFontSpec@@@Z @ 282 NONAME ; void CCandidateWnd::SetFont(class TFontSpec const &)
	?SetFont@CCandidateWnd@@QAEXPBVCFont@@@Z @ 283 NONAME ; void CCandidateWnd::SetFont(class CFont const *)
	?SetFont@CFepLayoutEditAreaBase@@QAEXABVTFontSpec@@@Z @ 284 NONAME ; void CFepLayoutEditAreaBase::SetFont(class TFontSpec const &)
	?SetFont@CFepLayoutEditAreaBase@@QAEXPBVCFont@@@Z @ 285 NONAME ; void CFepLayoutEditAreaBase::SetFont(class CFont const *)
	?SetFont@CVirtualKey@@QAEXABVTFontSpec@@@Z @ 286 NONAME ABSENT ; void CVirtualKey::SetFont(class TFontSpec const &)
	?SetFont@CVirtualKey@@QAEXPBVCFont@@@Z @ 287 NONAME ABSENT ; void CVirtualKey::SetFont(class CFont const *)
	?SetFont@CVirtualKeyboard@@QAEXABVTFontSpec@@@Z @ 288 NONAME ; void CVirtualKeyboard::SetFont(class TFontSpec const &)
	?SetFont@CVirtualKeyboard@@QAEXPBVCFont@@@Z @ 289 NONAME ; void CVirtualKeyboard::SetFont(class CFont const *)
	?SetFontColor@CVirtualKeyboard@@QAEXVTRgb@@@Z @ 290 NONAME ; void CVirtualKeyboard::SetFontColor(class TRgb)
	?SetGuideLineColor@CTransparentHwrWndExt@@QAEXABVTRgb@@@Z @ 291 NONAME ; void CTransparentHwrWndExt::SetGuideLineColor(class TRgb const &)
	?SetGuideLineStyle@CTransparentHwrWndExt@@QAEXH@Z @ 292 NONAME ; void CTransparentHwrWndExt::SetGuideLineStyle(int)
	?SetGuideLineWidth@CTransparentHwrWndExt@@QAEXH@Z @ 293 NONAME ; void CTransparentHwrWndExt::SetGuideLineWidth(int)
	?SetItemRect@CFepLayoutChoiceList@@QAEXABVTRect@@0@Z @ 294 NONAME ; void CFepLayoutChoiceList::SetItemRect(class TRect const &, class TRect const &)
	?SetItemsL@CFepLayoutChoiceList@@QAEXABV?$RPointerArray@USItem@CFepLayoutChoiceList@@@@@Z @ 295 NONAME ; void CFepLayoutChoiceList::SetItemsL(class RPointerArray<struct CFepLayoutChoiceList::SItem> const &)
	?SetKeyEvent@CVirtualKey@@QAEXII@Z @ 296 NONAME ABSENT ; void CVirtualKey::SetKeyEvent(unsigned int, unsigned int)
	?SetLatched@CVirtualKey@@QAEXH@Z @ 297 NONAME ; void CVirtualKey::SetLatched(int)
	?SetLatchedBitmap@CFepLayoutLatchButton@@QAEXPAVCFbsBitmap@@0@Z @ 298 NONAME ; void CFepLayoutLatchButton::SetLatchedBitmap(class CFbsBitmap *, class CFbsBitmap *)
	?SetLayoutPos@CFepUiLayout@@QAEXABVTPoint@@@Z @ 299 NONAME ; void CFepUiLayout::SetLayoutPos(class TPoint const &)
	?SetLongpressTimer@CDragBar@@QAEXVTTimeIntervalMicroSeconds32@@@Z @ 300 NONAME ; void CDragBar::SetLongpressTimer(class TTimeIntervalMicroSeconds32)
	?SetMaskBitmapL@CButtonBase@@QAEXPAVCFbsBitmap@@W4TButtonBmpType@@@Z @ 301 NONAME ; void CButtonBase::SetMaskBitmapL(class CFbsBitmap *, enum TButtonBmpType)
	?SetMaskBitmapL@CDragBar@@QAEXPAVCFbsBitmap@@W4TButtonBmpType@@@Z @ 302 NONAME ; void CDragBar::SetMaskBitmapL(class CFbsBitmap *, enum TButtonBmpType)
	?SetPosition@CInsertionPoint@@QAEXABVTPoint@@@Z @ 303 NONAME ; void CInsertionPoint::SetPosition(class TPoint const &)
	?SetPositionOfInsertionPointInBuffer@CFepLayoutEditAreaBase@@QAEXAAH@Z @ 304 NONAME ; void CFepLayoutEditAreaBase::SetPositionOfInsertionPointInBuffer(int &)
	?SetRect@CFepLayoutEditAreaBase@@QAEXVTRect@@@Z @ 305 NONAME ; void CFepLayoutEditAreaBase::SetRect(class TRect)
	?SetRect@CFepLayoutPopupWnd@@UAEXABVTRect@@@Z @ 306 NONAME ; void CFepLayoutPopupWnd::SetRect(class TRect const &)
	?SetRect@CFepUiBaseCtrl@@UAEXABVTRect@@@Z @ 307 NONAME ; void CFepUiBaseCtrl::SetRect(class TRect const &)
	?SetRect@CFepUiLayout@@QAEXABVTRect@@@Z @ 308 NONAME ; void CFepUiLayout::SetRect(class TRect const &)
	?SetResourceId@CFepUiBaseCtrl@@UAEXJ@Z @ 309 NONAME ; void CFepUiBaseCtrl::SetResourceId(long)
	?SetShadowAreaRect@CFepUiBaseCtrl@@QAEXABVTRect@@W4TShadowBitmapIndex@@@Z @ 310 NONAME ; void CFepUiBaseCtrl::SetShadowAreaRect(class TRect const &, enum TShadowBitmapIndex)
	?SetShadowAreaRect@CFepUiLayout@@QAEXABVTRect@@W4TShadowBitmapIndex@@@Z @ 311 NONAME ; void CFepUiLayout::SetShadowAreaRect(class TRect const &, enum TShadowBitmapIndex)
	?SetShadowBmp@CFepUiBaseCtrl@@QAEXPAVCFbsBitmap@@0W4TShadowBitmapIndex@@@Z @ 312 NONAME ; void CFepUiBaseCtrl::SetShadowBmp(class CFbsBitmap *, class CFbsBitmap *, enum TShadowBitmapIndex)
	?SetShadowBmp@CFepUiLayout@@QAEXPAVCFbsBitmap@@0W4TShadowBitmapIndex@@@Z @ 313 NONAME ; void CFepUiLayout::SetShadowBmp(class CFbsBitmap *, class CFbsBitmap *, enum TShadowBitmapIndex)
	?SetShadowRect@CFepUiBaseCtrl@@QAEXABVTRect@@@Z @ 314 NONAME ; void CFepUiBaseCtrl::SetShadowRect(class TRect const &)
	?SetShadowRect@CFepUiLayout@@QAEXABVTRect@@@Z @ 315 NONAME ; void CFepUiLayout::SetShadowRect(class TRect const &)
	?SetTextColor@CFepLayoutEditAreaBase@@QAEXVTRgb@@@Z @ 316 NONAME ; void CFepLayoutEditAreaBase::SetTextColor(class TRgb)
	?SetTextL@CFepInputContextField@@QAEXABUTFepInputContextFieldData@@@Z @ 317 NONAME ; void CFepInputContextField::SetTextL(struct TFepInputContextFieldData const &)
	?SetTextL@CFepLayoutEditAreaBase@@QAEXABVTCursorSelection@@ABVTDesC16@@@Z @ 318 NONAME ABSENT ; void CFepLayoutEditAreaBase::SetTextL(class TCursorSelection const &, class TDesC16 const &)
	?SetTopGuideLinePosition@CTransparentHwrWndExt@@QAEXABVTPoint@@0@Z @ 319 NONAME ; void CTransparentHwrWndExt::SetTopGuideLinePosition(class TPoint const &, class TPoint const &)
	?SetUnLatchedBitmap@CFepLayoutLatchButton@@QAEXPAVCFbsBitmap@@0@Z @ 320 NONAME ; void CFepLayoutLatchButton::SetUnLatchedBitmap(class CFbsBitmap *, class CFbsBitmap *)
	?SetWndTransparencyFactor@CTransparentHwrWnd@@QAEXE@Z @ 321 NONAME ; void CTransparentHwrWnd::SetWndTransparencyFactor(unsigned char)
	?SignalOwner@CFepUiLayout@@QAEXHABVTDesC16@@@Z @ 322 NONAME ; void CFepUiLayout::SignalOwner(int, class TDesC16 const &)
	?SizeChanged@CFepUiLayout@@EAEHPBX@Z @ 323 NONAME ; int CFepUiLayout::SizeChanged(void const *)
	?UnLockArea@CFepUiLayout@@QAEXABVTRect@@PAVCFepUiBaseCtrl@@@Z @ 324 NONAME ; void CFepUiLayout::UnLockArea(class TRect const &, class CFepUiBaseCtrl *)
	?UpdateArea@CFepUiBaseCtrl@@QAEXABVTRect@@H@Z @ 325 NONAME ; void CFepUiBaseCtrl::UpdateArea(class TRect const &, int)
	?UpdateArea@CFepUiLayout@@QAEXPBVCFepUiBaseCtrl@@ABVTRect@@HH@Z @ 326 NONAME ; void CFepUiLayout::UpdateArea(class CFepUiBaseCtrl const *, class TRect const &, int)
	?UpdateContent@CFepInputContextField@@MAEXABVTCursorSelection@@@Z @ 327 NONAME ; void CFepInputContextField::UpdateContent(class TCursorSelection const &)
	?UpdateCursorSelection@CFepLayoutEditAreaBase@@QAEXABVTCursorSelection@@@Z @ 328 NONAME ; void CFepLayoutEditAreaBase::UpdateCursorSelection(class TCursorSelection const &)
	?UpdateRegion@CHwrWndBase@@QAEXPAVCFepUiBaseCtrl@@@Z @ 329 NONAME ; void CHwrWndBase::UpdateRegion(class CFepUiBaseCtrl *)
	?UpdateValidRegion@CFepUiBaseCtrl@@UAEXPAV1@H@Z @ 330 NONAME ; void CFepUiBaseCtrl::UpdateValidRegion(class CFepUiBaseCtrl *, int)
	?UpdateValidRegion@CTransparentHwrWnd@@UAEXPAVCFepUiBaseCtrl@@H@Z @ 331 NONAME ; void CTransparentHwrWnd::UpdateValidRegion(class CFepUiBaseCtrl *, int)
	?DrawBackground@CFepUiBaseCtrl@@IAEXH@Z @ 332 NONAME ; void CFepUiBaseCtrl::DrawBackground(int)
	?DrawMaskBackground@CFepUiBaseCtrl@@IAEXH@Z @ 333 NONAME ; void CFepUiBaseCtrl::DrawMaskBackground(int)
	?DrawOpaqueMaskBackground@CFepUiBaseCtrl@@IAEXH@Z @ 334 NONAME ; void CFepUiBaseCtrl::DrawOpaqueMaskBackground(int)
	?DrawTransparentMaskBackground@CFepUiBaseCtrl@@IAEXABVTRect@@H@Z @ 335 NONAME ; void CFepUiBaseCtrl::DrawTransparentMaskBackground(class TRect const &, int)
	?SetBackgroundBitmapL@CButtonBase@@MAEXPAVCFbsBitmap@@@Z @ 336 NONAME ; void CButtonBase::SetBackgroundBitmapL(class CFbsBitmap *)
	?SetBackgroundMaskBitmapL@CButtonBase@@MAEXPAVCFbsBitmap@@@Z @ 337 NONAME ; void CButtonBase::SetBackgroundMaskBitmapL(class CFbsBitmap *)
	?Hide@CButtonBase@@UAEXH@Z @ 338 NONAME ; void CButtonBase::Hide(int)
	?RemoveKey@CVirtualKeyboard@@QAEXPAVCVirtualKey@@@Z @ 339 NONAME ; void CVirtualKeyboard::RemoveKey(class CVirtualKey *)
	?RemoveKeyHighLightBitmap@CVirtualKeyboard@@QAEXH@Z @ 340 NONAME ; void CVirtualKeyboard::RemoveKeyHighLightBitmap(int)
	?RemoveKeyHighLightMaskBitmap@CVirtualKeyboard@@QAEXH@Z @ 341 NONAME ; void CVirtualKeyboard::RemoveKeyHighLightMaskBitmap(int)
	?SetRect@CButtonBase@@UAEXABVTRect@@@Z @ 342 NONAME ABSENT ; void CButtonBase::SetRect(class TRect const &)
	?SetRect@CVirtualKey@@QAEXABVTRect@@@Z @ 343 NONAME ; void CVirtualKey::SetRect(class TRect const &)
	?DrawBackground@CFepUiBaseCtrl@@IAEXVTRect@@H@Z @ 344 NONAME ; void CFepUiBaseCtrl::DrawBackground(class TRect, int)
	?DrawOpaqueMaskBackground@CFepUiBaseCtrl@@IAEXVTRect@@H@Z @ 345 NONAME ; void CFepUiBaseCtrl::DrawOpaqueMaskBackground(class TRect, int)
	?DrawBitmap@CFepUiBaseCtrl@@IAEXVTRect@@PBVCFbsBitmap@@H@Z @ 346 NONAME ; void CFepUiBaseCtrl::DrawBitmap(class TRect, class CFbsBitmap const *, int)
	?OnDeActivate@CFepLayoutPopupWnd@@UAEXXZ @ 347 NONAME ; void CFepLayoutPopupWnd::OnDeActivate(void)
	??1CFepLayoutMultiLineIcf@@UAE@XZ @ 348 NONAME ABSENT ; CFepLayoutMultiLineIcf::~CFepLayoutMultiLineIcf(void)
	?AddKeyL@CVirtualKeyboard@@UAEXPAVCVirtualKey@@@Z @ 349 NONAME ; void CVirtualKeyboard::AddKeyL(class CVirtualKey *)
	?AddRawKeyL@CVirtualKeyboard@@UAEXPAVCVirtualKey@@@Z @ 350 NONAME ; void CVirtualKeyboard::AddRawKeyL(class CVirtualKey *)
	?CancelPointerDownL@CFepLayoutMultiLineIcf@@UAEXXZ @ 351 NONAME ; void CFepLayoutMultiLineIcf::CancelPointerDownL(void)
	?ConstructL@CTransparentHwrWndExt@@IAEXXZ @ 352 NONAME ; void CTransparentHwrWndExt::ConstructL(void)
	?Contains@CFepLayoutMultiLineIcf@@UAEHABVTPoint@@@Z @ 353 NONAME ; int CFepLayoutMultiLineIcf::Contains(class TPoint const &)
	?Contains@CFepUiBaseCtrl@@UAEHABVTPoint@@@Z @ 354 NONAME ; int CFepUiBaseCtrl::Contains(class TPoint const &)
	?ControlByType@CControlGroup@@QAEPAVCFepUiBaseCtrl@@_JH@Z @ 355 NONAME ; class CFepUiBaseCtrl * CControlGroup::ControlByType(long long, int)
	?CreateRawKeyL@CVirtualKeyboard@@QAEXABVTDesC16@@IABVTRect@@1HHH@Z @ 356 NONAME ; void CVirtualKeyboard::CreateRawKeyL(class TDesC16 const &, unsigned int, class TRect const &, class TRect const &, int, int, int)
	?CreateRawKeyL@CVirtualKeyboard@@QAEXIIABVTRect@@0HHH@Z @ 357 NONAME ; void CVirtualKeyboard::CreateRawKeyL(unsigned int, unsigned int, class TRect const &, class TRect const &, int, int, int)
	?CreateRawKeyL@CVirtualKeyboard@@QAEXAAV?$RPointerArray@VHBufC16@@@@HABVTRect@@@Z @ 358 NONAME ; void CVirtualKeyboard::CreateRawKeyL(class RPointerArray<class HBufC16> &, int, class TRect const &)
	?CursorVisible@CFepLayoutMultiLineIcf@@UBEHXZ @ 359 NONAME ; int CFepLayoutMultiLineIcf::CursorVisible(void) const
	?Draw@CFepLayoutMultiLineIcf@@UAEXXZ @ 360 NONAME ABSENT ; void CFepLayoutMultiLineIcf::Draw(void)
	?DrawStroke@CTransparentHwrWndExt@@EAE?AVTRect@@H@Z @ 361 NONAME ; class TRect CTransparentHwrWndExt::DrawStroke(int)
	?Extension_@CFepUiBaseCtrl@@MAEHIAAPAXPAX@Z @ 362 NONAME ; int CFepUiBaseCtrl::Extension_(unsigned int, void * &, void *)
	?GetEditorFieldMaxLen@CFepLayoutMultiLineIcf@@UAEHXZ @ 363 NONAME ; int CFepLayoutMultiLineIcf::GetEditorFieldMaxLen(void)
	?HandleArrowBtnEventL@CFepLayoutMultiLineIcf@@UAEXW4TArrowBtnEvent@1@@Z @ 364 NONAME ; void CFepLayoutMultiLineIcf::HandleArrowBtnEventL(enum CFepLayoutMultiLineIcf::TArrowBtnEvent)
	?HandlePointerDownEventL@CFepLayoutMultiLineIcf@@UAEPAVCFepUiBaseCtrl@@ABVTPoint@@@Z @ 365 NONAME ; class CFepUiBaseCtrl * CFepLayoutMultiLineIcf::HandlePointerDownEventL(class TPoint const &)
	?HandlePointerDownEventL@CTransparentHwrWndExt@@MAEPAVCFepUiBaseCtrl@@ABVTPoint@@@Z @ 366 NONAME ; class CFepUiBaseCtrl * CTransparentHwrWndExt::HandlePointerDownEventL(class TPoint const &)
	?HandlePointerLeave@CFepLayoutMultiLineIcf@@UAEXABVTPoint@@@Z @ 367 NONAME ; void CFepLayoutMultiLineIcf::HandlePointerLeave(class TPoint const &)
	?HandlePointerMoveEventL@CFepLayoutMultiLineIcf@@UAEPAVCFepUiBaseCtrl@@ABVTPoint@@@Z @ 368 NONAME ; class CFepUiBaseCtrl * CFepLayoutMultiLineIcf::HandlePointerMoveEventL(class TPoint const &)
	?HandlePointerMoveEventL@CTransparentHwrWndExt@@MAEPAVCFepUiBaseCtrl@@ABVTPoint@@@Z @ 369 NONAME ; class CFepUiBaseCtrl * CTransparentHwrWndExt::HandlePointerMoveEventL(class TPoint const &)
	?HandlePointerUpEventL@CFepLayoutMultiLineIcf@@UAEPAVCFepUiBaseCtrl@@ABVTPoint@@@Z @ 370 NONAME ; class CFepUiBaseCtrl * CFepLayoutMultiLineIcf::HandlePointerUpEventL(class TPoint const &)
	?HandlePointerUpEventL@CTransparentHwrWndExt@@MAEPAVCFepUiBaseCtrl@@ABVTPoint@@@Z @ 371 NONAME ; class CFepUiBaseCtrl * CTransparentHwrWndExt::HandlePointerUpEventL(class TPoint const &)
	?IsFocused@CFepLayoutMultiLineIcf@@UAEHXZ @ 372 NONAME ; int CFepLayoutMultiLineIcf::IsFocused(void)
	?ItemsCount@CFepLayoutChoiceList@@QAEHXZ @ 373 NONAME ; int CFepLayoutChoiceList::ItemsCount(void)
	?Move@CFepLayoutMultiLineIcf@@UAEXABVTPoint@@@Z @ 374 NONAME ; void CFepLayoutMultiLineIcf::Move(class TPoint const &)
	?NewL@CFepLayoutMultiLineIcf@@SAPAV1@VTRect@@PAVCFepUiLayout@@HHH@Z @ 375 NONAME ABSENT ; class CFepLayoutMultiLineIcf * CFepLayoutMultiLineIcf::NewL(class TRect, class CFepUiLayout *, int, int, int)
	?NewL@CVirtualKey@@SAPAV1@AAV?$RPointerArray@VHBufC16@@@@HABVTRect@@@Z @ 376 NONAME ; class CVirtualKey * CVirtualKey::NewL(class RPointerArray<class HBufC16> &, int, class TRect const &)
	?OnActivate@CFepLayoutMultiLineIcf@@UAEXXZ @ 377 NONAME ABSENT ; void CFepLayoutMultiLineIcf::OnActivate(void)
	?OnDeActivate@CFepLayoutMultiLineIcf@@UAEXXZ @ 378 NONAME ABSENT ; void CFepLayoutMultiLineIcf::OnDeActivate(void)
	?OnDeActivate@CTransparentHwrWndExt@@UAEXXZ @ 379 NONAME ; void CTransparentHwrWndExt::OnDeActivate(void)
	?OnLayoutDraggingStart@CTransparentHwrWndExt@@UAEXXZ @ 380 NONAME ; void CTransparentHwrWndExt::OnLayoutDraggingStart(void)
	?PrepareForFocusGain@CFepLayoutMultiLineIcf@@MAEHXZ @ 381 NONAME ; int CFepLayoutMultiLineIcf::PrepareForFocusGain(void)
	?PrepareForFocusLoss@CFepLayoutMultiLineIcf@@MAEXXZ @ 382 NONAME ; void CFepLayoutMultiLineIcf::PrepareForFocusLoss(void)
	?SetAutoCompleteTextColor@CFepLayoutMultiLineIcf@@UAEXVTRgb@@@Z @ 383 NONAME ; void CFepLayoutMultiLineIcf::SetAutoCompleteTextColor(class TRgb)
	?SetCursorVisible@CFepLayoutMultiLineIcf@@UAEXH@Z @ 384 NONAME ; void CFepLayoutMultiLineIcf::SetCursorVisible(int)
	?SetDimmed@CFepLayoutMultiLineIcf@@UAEXH@Z @ 385 NONAME ; void CFepLayoutMultiLineIcf::SetDimmed(int)
	?SetFocus@CFepLayoutMultiLineIcf@@UAEXH@Z @ 386 NONAME ; void CFepLayoutMultiLineIcf::SetFocus(int)
	?SetFontHeightL@CFepLayoutMultiLineIcf@@UAEXHH@Z @ 387 NONAME ABSENT ; void CFepLayoutMultiLineIcf::SetFontHeightL(int, int)
	?SetOverLapState@CFepLayoutMultiLineIcf@@UAEXHVTRect@@@Z @ 388 NONAME ; void CFepLayoutMultiLineIcf::SetOverLapState(int, class TRect)
	?SetRect@CFepLayoutMultiLineIcf@@UAEXABVTRect@@@Z @ 389 NONAME ; void CFepLayoutMultiLineIcf::SetRect(class TRect const &)
	?SetRect@CVirtualKeyboard@@UAEXABVTRect@@@Z @ 390 NONAME ; void CVirtualKeyboard::SetRect(class TRect const &)
	?SetTextColorL@CFepLayoutMultiLineIcf@@UAEXVTRgb@@@Z @ 391 NONAME ; void CFepLayoutMultiLineIcf::SetTextColorL(class TRgb)
	?SetTextL@CFepLayoutEditAreaBase@@QAEXABUTFepInputContextFieldData@@@Z @ 392 NONAME ; void CFepLayoutEditAreaBase::SetTextL(struct TFepInputContextFieldData const &)
	?SetTextL@CFepLayoutMultiLineIcf@@UAEXABUTFepInputContextFieldData@@@Z @ 393 NONAME ; void CFepLayoutMultiLineIcf::SetTextL(struct TFepInputContextFieldData const &)
	?SetTextSelColorL@CFepLayoutMultiLineIcf@@UAEXVTRgb@@@Z @ 394 NONAME ; void CFepLayoutMultiLineIcf::SetTextSelColorL(class TRgb)
	?SetUnicodesL@CVirtualKey@@QAEXAAV?$RPointerArray@VHBufC16@@@@@Z @ 395 NONAME ; void CVirtualKey::SetUnicodesL(class RPointerArray<class HBufC16> &)
	?SizeChangedL@CFepLayoutMultiLineIcf@@UAEXABVTRect@@HH@Z @ 396 NONAME ABSENT ; void CFepLayoutMultiLineIcf::SizeChangedL(class TRect const &, int, int)
	?UpdateValidRegion@CControlGroup@@UAEXPAVCFepUiBaseCtrl@@H@Z @ 397 NONAME ; void CControlGroup::UpdateValidRegion(class CFepUiBaseCtrl *, int)
	?UpdateValidRegion@CFepLayoutEditAreaBase@@UAEXPAVCFepUiBaseCtrl@@H@Z @ 398 NONAME ; void CFepLayoutEditAreaBase::UpdateValidRegion(class CFepUiBaseCtrl *, int)
	?WholeHiden@CFepUiBaseCtrl@@QAEHXZ @ 399 NONAME ; int CFepUiBaseCtrl::WholeHiden(void)
	?SetTextAlignment@CFepLayoutMultiLineIcf@@UAEXHH@Z @ 400 NONAME ABSENT ; void CFepLayoutMultiLineIcf::SetTextAlignment(int, int)
	?GetEnabledPluginMode@CFepUiLayout@@QAEHXZ @ 401 NONAME ; int CFepUiLayout::GetEnabledPluginMode(void)
	?OnDisplay@CFepLayoutChoiceList@@EAEXXZ @ 402 NONAME ; void CFepLayoutChoiceList::OnDisplay(void)
	?ReCalcLayout@CFepLayoutChoiceList@@AAEXXZ @ 403 NONAME ABSENT ; void CFepLayoutChoiceList::ReCalcLayout(void)
	?Draw@CFepLayoutChoiceList@@EAEXXZ @ 404 NONAME ; void CFepLayoutChoiceList::Draw(void)
	?SetTextAlignmentL@CFepLayoutMultiLineIcf@@UAEXHH@Z @ 405 NONAME ; void CFepLayoutMultiLineIcf::SetTextAlignmentL(int, int)
	?NewL@CFepLayoutMultiLineIcf@@SAPAV1@VTRect@@PAVCFepUiLayout@@HHHPBVCFont@@@Z @ 406 NONAME ; class CFepLayoutMultiLineIcf * CFepLayoutMultiLineIcf::NewL(class TRect, class CFepUiLayout *, int, int, int, class CFont const *)
	?SetFontL@CFepLayoutMultiLineIcf@@UAEXHHPBVCFont@@@Z @ 407 NONAME ; void CFepLayoutMultiLineIcf::SetFontL(int, int, class CFont const *)
	?SetPromptTextL@CFepLayoutMultiLineIcf@@UAEXABVTDesC16@@H@Z @ 408  NONAME ; void CFepLayoutMultiLineIcf::SetPromptTextL(class TDesC16 const &, int)
	?SizeChangedL@CFepLayoutMultiLineIcf@@UAEXABVTRect@@HHPBVCFont@@@Z @ 409 NONAME ; void CFepLayoutMultiLineIcf::SizeChangedL(class TRect const &, int, int, class CFont const *)
	?AddOverLapState@CFepLayoutMultiLineIcf@@UAEXVTRect@@@Z @ 410 NONAME ; void CFepLayoutMultiLineIcf::AddOverLapState(class TRect)
	?IsEmpty@CFepLayoutMultiLineIcf@@UAEHXZ @ 411 NONAME ; int CFepLayoutMultiLineIcf::IsEmpty(void)
	??0CVirtualKeyboard@@IAE@ABVTRect@@PAVCFepUiLayout@@HABVTFontSpec@@H@Z @ 412 NONAME ; CVirtualKeyboard::CVirtualKeyboard(class TRect const &, class CFepUiLayout *, int, class TFontSpec const &, int)
	?AddIrregularKeyBitmapL@CVirtualKeyboard@@QAEXW4TVirtualKeyIrregularKeyType@@W4TVirtualKeyIrregularKeyState@@PAVCFbsBitmap@@@Z @ 413 NONAME ; void CVirtualKeyboard::AddIrregularKeyBitmapL(enum TVirtualKeyIrregularKeyType, enum TVirtualKeyIrregularKeyState, class CFbsBitmap *)
	?IrregualrKeyType@CVirtualKey@@QAE?AW4TVirtualKeyIrregularKeyType@@XZ @ 414 NONAME ; enum TVirtualKeyIrregularKeyType CVirtualKey::IrregualrKeyType(void)
	?IrregularKeyBitmap@CVirtualKeyboard@@QAEPAVCFbsBitmap@@W4TVirtualKeyIrregularKeyType@@W4TVirtualKeyIrregularKeyState@@@Z @ 415 NONAME ; class CFbsBitmap * CVirtualKeyboard::IrregularKeyBitmap(enum TVirtualKeyIrregularKeyType, enum TVirtualKeyIrregularKeyState)
	?IsIrregularKeyBoard@CVirtualKeyboard@@QAEHXZ @ 416 NONAME ; int CVirtualKeyboard::IsIrregularKeyBoard(void)
	?NewL@CVirtualKeyboard@@SAPAV1@ABVTRect@@PAVCFepUiLayout@@HABVTFontSpec@@H@Z @ 417 NONAME ; class CVirtualKeyboard * CVirtualKeyboard::NewL(class TRect const &, class CFepUiLayout *, int, class TFontSpec const &, int)
	?NewL@CVirtualKeyboard@@SAPAV1@ABVTRect@@PAVCFepUiLayout@@HPAVCFont@@H@Z @ 418 NONAME ; class CVirtualKeyboard * CVirtualKeyboard::NewL(class TRect const &, class CFepUiLayout *, int, class CFont *, int)
	?RemoveIrregularKeyBitmapL@CVirtualKeyboard@@QAEXW4TVirtualKeyIrregularKeyType@@W4TVirtualKeyIrregularKeyState@@@Z @ 419 NONAME ; void CVirtualKeyboard::RemoveIrregularKeyBitmapL(enum TVirtualKeyIrregularKeyType, enum TVirtualKeyIrregularKeyState)
	?SetIrregualrKeyType@CVirtualKey@@QAEXW4TVirtualKeyIrregularKeyType@@@Z @ 420 NONAME ; void CVirtualKey::SetIrregualrKeyType(enum TVirtualKeyIrregularKeyType)
	?SetIrregularKeyBoard@CVirtualKeyboard@@QAEXH@Z @ 421 NONAME ; void CVirtualKeyboard::SetIrregularKeyBoard(int)
	?FindCtrl@CControlGroup@@QAEHPAVCFepUiBaseCtrl@@@Z @ 422 NONAME ABSENT ; int CControlGroup::FindCtrl(class CFepUiBaseCtrl *)
	?NonIrregularKeyBitmap@CVirtualKeyboard@@QAEPAVCFbsBitmap@@W4TVirtualKeyBmpType@@@Z @ 423 NONAME ; class CFbsBitmap * CVirtualKeyboard::NonIrregularKeyBitmap(enum TVirtualKeyBmpType)
	?SetNonIrregularKeyBitmapL@CVirtualKeyboard@@QAEXW4TVirtualKeyBmpType@@PAVCFbsBitmap@@@Z @ 424 NONAME ; void CVirtualKeyboard::SetNonIrregularKeyBitmapL(enum TVirtualKeyBmpType, class CFbsBitmap *)
	?Display@CFepLayoutPopupWnd@@QAEXABVTRect@@@Z @ 425 NONAME ; void CFepLayoutPopupWnd::Display(class TRect const &)
	??0CFepLayoutAknChoiceList@@IAE@PAVCFepUiLayout@@HPAVCCoeControl@@@Z @ 426 NONAME ; CFepLayoutAknChoiceList::CFepLayoutAknChoiceList(class CFepUiLayout *, int, class CCoeControl *)
	??1CFepLayoutAknChoiceList@@UAE@XZ @ 427 NONAME ; CFepLayoutAknChoiceList::~CFepLayoutAknChoiceList(void)
	?AbleToDraw@CFepUiBaseCtrl@@IAEHXZ @ 428 NONAME ; int CFepUiBaseCtrl::AbleToDraw(void)
	?AddItemL@CFepLayoutAknChoiceList@@QAEXABUSItem@CFepLayoutChoiceList@@@Z @ 429 NONAME ; void CFepLayoutAknChoiceList::AddItemL(struct CFepLayoutChoiceList::SItem const &)
	?BringToTop@CFepUiBaseCtrl@@QAEXXZ @ 430 NONAME ; void CFepUiBaseCtrl::BringToTop(void)
	?ClearItemsL@CFepLayoutAknChoiceList@@QAEXXZ @ 431 NONAME ; void CFepLayoutAknChoiceList::ClearItemsL(void)
	?ConstructL@CFepLayoutAknChoiceList@@IAEXXZ @ 432 NONAME ; void CFepLayoutAknChoiceList::ConstructL(void)
	?Draw@CFepLayoutAknChoiceList@@EAEXXZ @ 433 NONAME ; void CFepLayoutAknChoiceList::Draw(void)
	?FindCommand@CFepLayoutChoiceList@@QAEHH@Z @ 434 NONAME ; int CFepLayoutChoiceList::FindCommand(int)
	?FormatedCellListBox@CFepLayoutAknChoiceList@@QAEPAVCEikFormattedCellListBox@@XZ @ 435 NONAME ; class CEikFormattedCellListBox * CFepLayoutAknChoiceList::FormatedCellListBox(void)
	?HandlePointerDownEventL@CFepLayoutAknChoiceList@@MAEPAVCFepUiBaseCtrl@@ABVTPoint@@@Z @ 436 NONAME ; class CFepUiBaseCtrl * CFepLayoutAknChoiceList::HandlePointerDownEventL(class TPoint const &)
	?HandlePointerMoveEventL@CFepLayoutAknChoiceList@@MAEPAVCFepUiBaseCtrl@@ABVTPoint@@@Z @ 437 NONAME ; class CFepUiBaseCtrl * CFepLayoutAknChoiceList::HandlePointerMoveEventL(class TPoint const &)
	?HandlePointerUpEventL@CFepLayoutAknChoiceList@@MAEPAVCFepUiBaseCtrl@@ABVTPoint@@@Z @ 438 NONAME ; class CFepUiBaseCtrl * CFepLayoutAknChoiceList::HandlePointerUpEventL(class TPoint const &)
	?InsertItemL@CFepLayoutAknChoiceList@@QAEXHABUSItem@CFepLayoutChoiceList@@@Z @ 439 NONAME ; void CFepLayoutAknChoiceList::InsertItemL(int, struct CFepLayoutChoiceList::SItem const &)
	?ItemsCount@CFepLayoutAknChoiceList@@QAEHXZ @ 440 NONAME ; int CFepLayoutAknChoiceList::ItemsCount(void)
	?ListBox@CFepLayoutAknChoiceList@@QAEPAVCEikColumnListBox@@XZ @ 441 NONAME ; class CEikColumnListBox * CFepLayoutAknChoiceList::ListBox(void)
	?MinItemWidthInPixels@CFepLayoutAknChoiceList@@AAEHXZ @ 442 NONAME ; int CFepLayoutAknChoiceList::MinItemWidthInPixels(void)
	?NewL@CFepLayoutAknChoiceList@@SAPAV1@PAVCFepUiLayout@@HPAVCCoeControl@@@Z @ 443 NONAME ; class CFepLayoutAknChoiceList * CFepLayoutAknChoiceList::NewL(class CFepUiLayout *, int, class CCoeControl *)
	?OnDisplay@CFepLayoutAknChoiceList@@AAEXABVTPoint@@@Z @ 444 NONAME ; void CFepLayoutAknChoiceList::OnDisplay(class TPoint const &)
	?ReCalcLayout@CFepLayoutAknChoiceList@@EAEXXZ @ 445 NONAME ; void CFepLayoutAknChoiceList::ReCalcLayout(void)
	?RemoveItemByCommand@CFepLayoutAknChoiceList@@QAEXH@Z @ 446 NONAME ; void CFepLayoutAknChoiceList::RemoveItemByCommand(int)
	?RemoveItemByIndex@CFepLayoutAknChoiceList@@QAEXH@Z @ 447 NONAME ; void CFepLayoutAknChoiceList::RemoveItemByIndex(int)
	?ScrollbarVisible@CFepLayoutAknChoiceList@@AAEHXZ @ 448 NONAME ; int CFepLayoutAknChoiceList::ScrollbarVisible(void)
	?SetItemRect@CFepLayoutAknChoiceList@@QAEXABVTRect@@0@Z @ 449 NONAME ; void CFepLayoutAknChoiceList::SetItemRect(class TRect const &, class TRect const &)
	?SetItemsL@CFepLayoutAknChoiceList@@QAEXABV?$RPointerArray@USItem@CFepLayoutChoiceList@@@@@Z @ 450 NONAME ; void CFepLayoutAknChoiceList::SetItemsL(class RPointerArray<struct CFepLayoutChoiceList::SItem> const &)
	?SetRect@CFepLayoutAknChoiceList@@UAEXABVTRect@@@Z @ 451 NONAME ; void CFepLayoutAknChoiceList::SetRect(class TRect const &)
	?ValidClipRegion@CFepUiBaseCtrl@@IAEABVTRegion@@XZ @ 452 NONAME ; class TRegion const & CFepUiBaseCtrl::ValidClipRegion(void)
	?ReCalcLayout@CFepLayoutChoiceList@@EAEXXZ @ 453 NONAME ; void CFepLayoutChoiceList::ReCalcLayout(void)
	?GowithPointerDown@CVirtualKeyboard@@QAEHXZ @ 454 NONAME ; int CVirtualKeyboard::GowithPointerDown(void)
	?SetBubbleBitmapParam@CVirtualKeyboard@@QAEXPAVCFbsBitmap@@0VTAknsItemID@@@Z @ 455 NONAME ; void CVirtualKeyboard::SetBubbleBitmapParam(class CFbsBitmap *, class CFbsBitmap *, class TAknsItemID)
	?SetBubbleSize@CVirtualKeyboard@@QAEXABVTSize@@@Z @ 456 NONAME ; void CVirtualKeyboard::SetBubbleSize(class TSize const &)
	?SetBubbleVerticalMargin@CVirtualKeyboard@@QAEXH@Z @ 457 NONAME ; void CVirtualKeyboard::SetBubbleVerticalMargin(int)
	?SetGowithPointerDown@CVirtualKeyboard@@QAEXH@Z @ 458 NONAME ; void CVirtualKeyboard::SetGowithPointerDown(int)
	?SetTextFormat@CVirtualKeyboard@@QAEXVTAknTextLineLayout@@@Z @ 459 NONAME ; void CVirtualKeyboard::SetTextFormat(class TAknTextLineLayout)
	?ShowBubble@CVirtualKeyboard@@QAEXH@Z @ 460 NONAME ; void CVirtualKeyboard::ShowBubble(int)
	?DoTactileFeedback@CFepUiLayout@@QAEXW4TTouchLogicalFeedback@@@Z @ 461 NONAME ABSENT ; void CFepUiLayout::DoTactileFeedback(enum TTouchLogicalFeedback)
	?SupportTactileFeedback@CFepUiLayout@@QAEHXZ @ 462 NONAME ; int CFepUiLayout::SupportTactileFeedback(void)
	?SetSkinID@CFepLayoutChoiceList@@QAEXVTAknsItemID@@0@Z @ 463 NONAME ; void CFepLayoutChoiceList::SetSkinID(class TAknsItemID, class TAknsItemID)
	?InlineTextPos@CFepLayoutMultiLineIcf@@UAEXAAVTPoint@@0@Z @ 464 NONAME ; void CFepLayoutMultiLineIcf::InlineTextPos(class TPoint &, class TPoint &)
	?ReportChoiceEvent@CFepLayoutChoiceList@@QAEXAAUSEvent@1@@Z @ 465 NONAME ; void CFepLayoutChoiceList::ReportChoiceEvent(struct CFepLayoutChoiceList::SEvent &)
	?CurrentFocusedIndex@CFepLayoutChoiceList@@QBEHXZ @ 466 NONAME ; int CFepLayoutChoiceList::CurrentFocusedIndex(void) const
	?HandleAppInfoChange@CFepUiLayout@@UAEXABVTDesC16@@W4TPeninputAppInfo@@@Z @ 467 NONAME ; void CFepUiLayout::HandleAppInfoChange(class TDesC16 const &, enum TPeninputAppInfo)
	??0CBubbleCtrl@@IAE@ABVTRect@@PAVCFepUiLayout@@H@Z @ 468 NONAME ; CBubbleCtrl::CBubbleCtrl(class TRect const &, class CFepUiLayout *, int)
	??1CBubbleCtrl@@UAE@XZ @ 469 NONAME ; CBubbleCtrl::~CBubbleCtrl(void)
	?Draw@CBubbleCtrl@@UAEXXZ @ 470 NONAME ; void CBubbleCtrl::Draw(void)
	?Hide@CBubbleCtrl@@UAEXH@Z @ 471 NONAME ; void CBubbleCtrl::Hide(int)
	?NewL@CBubbleCtrl@@SAPAV1@ABVTRect@@PAVCFepUiLayout@@H@Z @ 472 NONAME ; class CBubbleCtrl * CBubbleCtrl::NewL(class TRect const &, class CFepUiLayout *, int)
	?Popup@CBubbleCtrl@@QAEXABVTRect@@@Z @ 473 NONAME ; void CBubbleCtrl::Popup(class TRect const &)
	?SetBitmapParam@CBubbleCtrl@@QAEXPAVCFbsBitmap@@0VTAknsItemID@@@Z @ 474 NONAME ; void CBubbleCtrl::SetBitmapParam(class CFbsBitmap *, class CFbsBitmap *, class TAknsItemID)
	?SetTextFormat@CBubbleCtrl@@QAEXVTAknTextLineLayout@@@Z @ 475 NONAME ; void CBubbleCtrl::SetTextFormat(class TAknTextLineLayout)
	?SetTextL@CBubbleCtrl@@QAEXABVTDesC16@@@Z @ 476 NONAME ; void CBubbleCtrl::SetTextL(class TDesC16 const &)
	?MsgBubbleCtrl@CFepLayoutMultiLineIcf@@UAEPAVCBubbleCtrl@@XZ @ 477 NONAME ; class CBubbleCtrl * CFepLayoutMultiLineIcf::MsgBubbleCtrl(void)
	?IsShowing@CBubbleCtrl@@QAEHXZ @ 478 NONAME ; int CBubbleCtrl::IsShowing(void)
	?SetMsgBubbleCtrlSize@CFepLayoutMultiLineIcf@@UAEXABVTSize@@@Z @ 479 NONAME ; void CFepLayoutMultiLineIcf::SetMsgBubbleCtrlSize(class TSize const &)
	?PromptText@CFepLayoutMultiLineIcf@@UAEPBVHBufC16@@XZ @ 480 NONAME ; class HBufC16 const * CFepLayoutMultiLineIcf::PromptText(void)
	?HandleResourceChange@CControlGroup@@MAEXH@Z @ 481 NONAME ; void CControlGroup::HandleResourceChange(int)
	?HandleResourceChange@CFepUiBaseCtrl@@MAEXH@Z @ 482 NONAME ; void CFepUiBaseCtrl::HandleResourceChange(int)
	?SimulateRawEvent@CFepUiBaseCtrl@@QAEXABVTRawEvent@@@Z @ 483 NONAME ; void CFepUiBaseCtrl::SimulateRawEvent(class TRawEvent const &)
	?Display@CFepLayoutPopupWnd@@QAEXABVTRect@@W4TDisplayPosition@1@@Z @ 484 NONAME ; void CFepLayoutPopupWnd::Display(class TRect const &, enum CFepLayoutPopupWnd::TDisplayPosition)
	?HideBubble@CFepLayoutMultiLineIcf@@UAEXXZ @ 485 NONAME ; void CFepLayoutMultiLineIcf::HideBubble(void)
	?ShowBubble@CFepLayoutMultiLineIcf@@UAEXABVTDesC16@@ABVTRect@@@Z @ 486 NONAME ; void CFepLayoutMultiLineIcf::ShowBubble(class TDesC16 const &, class TRect const &)
	?SetCurrentFocusedIndex@CFepLayoutChoiceList@@QAEXH@Z @ 487 NONAME ; void CFepLayoutChoiceList::SetCurrentFocusedIndex(int)
	?GraphicDeviceSizeChanged@CControlGroup@@MAEXXZ @ 488 NONAME ; void CControlGroup::GraphicDeviceSizeChanged(void)
	?GraphicDeviceSizeChanged@CFepLayoutMultiLineIcf@@MAEXXZ @ 489 NONAME ABSENT ; void CFepLayoutMultiLineIcf::GraphicDeviceSizeChanged(void)
	?GraphicDeviceSizeChanged@CFepUiBaseCtrl@@MAEXXZ @ 490 NONAME ; void CFepUiBaseCtrl::GraphicDeviceSizeChanged(void)
	?SetFrameDiff@CBubbleCtrl@@QAEXHHHH@Z @ 491 NONAME ; void CBubbleCtrl::SetFrameDiff(int, int, int, int)
	?SetFrameDiff@CVirtualKeyboard@@QAEXHHHH@Z @ 492 NONAME ; void CVirtualKeyboard::SetFrameDiff(int, int, int, int)
	?ChangeFeedbackArea@CFepUiLayout@@QAEXHABVTRect@@0@Z @ 493 NONAME ; void CFepUiLayout::ChangeFeedbackArea(int, class TRect const &, class TRect const &)
	?DeRegisterFeedbackArea@CFepUiLayout@@QAEXHABVTRect@@@Z @ 494 NONAME ; void CFepUiLayout::DeRegisterFeedbackArea(int, class TRect const &)
	?RegisterFeedbackArea@CFepUiLayout@@QAEXHABVTRect@@@Z @ 495 NONAME ; void CFepUiLayout::RegisterFeedbackArea(int, class TRect const &)
	?DoTactileFeedback@CFepUiLayout@@QAEXH@Z @ 496 NONAME ; void CFepUiLayout::DoTactileFeedback(int)
	?ExtractText@CFepLayoutMultiLineIcf@@UAEXAAVTDes16@@HH@Z @ 497 NONAME ; void CFepLayoutMultiLineIcf::ExtractText(class TDes16 &, int, int)
	?CancelCharWriting@CTransparentHwrWndExt@@UAEXXZ @ 498 NONAME ; void CTransparentHwrWndExt::CancelCharWriting(void)
	?SetBitmapParam@CBubbleCtrl@@QAEXPAVCFbsBitmap@@0VTAknsItemID@@11@Z @ 499 NONAME ; void CBubbleCtrl::SetBitmapParam(class CFbsBitmap *, class CFbsBitmap *, class TAknsItemID, class TAknsItemID, class TAknsItemID)
	?AfterDisplayed@CFepLayoutChoiceList@@MAEXXZ @ 500 NONAME ; void CFepLayoutChoiceList::AfterDisplayed(void)
	?AfterDisplayed@CFepLayoutPopupWnd@@MAEXXZ @ 501 NONAME ; void CFepLayoutPopupWnd::AfterDisplayed(void)
	?SetTextAlignmentL@CFepLayoutEditAreaBase@@QAEXH@Z @ 502 NONAME ; void CFepLayoutEditAreaBase::SetTextAlignmentL(int)
	??0CFepLayoutMultiLineIcf@@IAE@PAVCFepUiLayout@@H@Z @ 503 NONAME ; CFepLayoutMultiLineIcf::CFepLayoutMultiLineIcf(class CFepUiLayout *, int)
	?AbsOrderPos@CFepUiBaseCtrl@@QAEHXZ @ 504 NONAME ; int CFepUiBaseCtrl::AbsOrderPos(void)
	?BaseConstructL@CFepLayoutMultiLineIcf@@IAEXVTRect@@HHPBVCFont@@@Z @ 505 NONAME ; void CFepLayoutMultiLineIcf::BaseConstructL(class TRect, int, int, class CFont const *)
	?BringToBack@CFepUiBaseCtrl@@QAEXXZ @ 506 NONAME ; void CFepUiBaseCtrl::BringToBack(void)
	?BringToBackInGroup@CControlGroup@@UAEXPAVCFepUiBaseCtrl@@@Z @ 507 NONAME ; void CControlGroup::BringToBackInGroup(class CFepUiBaseCtrl *)
	?BringToTopInGroup@CControlGroup@@UAEXPAVCFepUiBaseCtrl@@@Z @ 508 NONAME ; void CControlGroup::BringToTopInGroup(class CFepUiBaseCtrl *)
	?Close@CBubbleCtrl@@QAEXXZ @ 509 NONAME ; void CBubbleCtrl::Close(void)
	?CreateCursor@CFepUiLayout@@QAEPAVCFepUiCursor@@XZ @ 510 NONAME ; class CFepUiCursor * CFepUiLayout::CreateCursor(void)
	?EnableTextSelection@CFepLayoutMultiLineIcf@@UAEXH@Z @ 511 NONAME ; void CFepLayoutMultiLineIcf::EnableTextSelection(int)
	?ExtractText@CFepLayoutMultiLineIcfEditor@@QAEXAAVTDes16@@HH@Z @ 512 NONAME ; void CFepLayoutMultiLineIcfEditor::ExtractText(class TDes16 &, int, int)
	?GraphicDeviceSizeChanged@CFepLayoutMultiLineIcfEditor@@UAEXXZ @ 513 NONAME ; void CFepLayoutMultiLineIcfEditor::GraphicDeviceSizeChanged(void)
	?HandleControlEvent@CFepLayoutMultiLineIcf@@MAEXHPAVCFepUiBaseCtrl@@ABVTDesC16@@@Z @ 514 NONAME ; void CFepLayoutMultiLineIcf::HandleControlEvent(int, class CFepUiBaseCtrl *, class TDesC16 const &)
	?HideBubble@CFepLayoutMultiLineIcfEditor@@QAEXXZ @ 515 NONAME ; void CFepLayoutMultiLineIcfEditor::HideBubble(void)
	?InlineStateOn@CFepLayoutMultiLineIcf@@UAEHXZ @ 516 NONAME ; int CFepLayoutMultiLineIcf::InlineStateOn(void)
	?IsEmpty@CFepLayoutMultiLineIcfEditor@@QAEHXZ @ 517 NONAME ; int CFepLayoutMultiLineIcfEditor::IsEmpty(void)
	?MsgBubbleCtrl@CFepLayoutMultiLineIcfEditor@@QAEPAVCBubbleCtrl@@XZ @ 518 NONAME ; class CBubbleCtrl * CFepLayoutMultiLineIcfEditor::MsgBubbleCtrl(void)
	?NewL@CFepLayoutMultiLineIcfEditor@@SAPAV1@VTRect@@PAVCFepUiLayout@@HHHPBVCFont@@@Z @ 519 NONAME ; class CFepLayoutMultiLineIcfEditor * CFepLayoutMultiLineIcfEditor::NewL(class TRect, class CFepUiLayout *, int, int, int, class CFont const *)
	?NomatchState@CFepLayoutMultiLineIcf@@UAEHXZ @ 520 NONAME ; int CFepLayoutMultiLineIcf::NomatchState(void)
	?PrepareForFocusGain@CFepLayoutMultiLineIcfEditor@@UAEHXZ @ 521 NONAME ; int CFepLayoutMultiLineIcfEditor::PrepareForFocusGain(void)
	?PrepareForFocusLoss@CFepLayoutMultiLineIcfEditor@@UAEXXZ @ 522 NONAME ; void CFepLayoutMultiLineIcfEditor::PrepareForFocusLoss(void)
	?ReDraw@CFepUiCursor@@QAEXH@Z @ 523 NONAME ; void CFepUiCursor::ReDraw(int)
	?SetBgImgSkinId@CFepLayoutMultiLineIcf@@UAEXVTAknsItemID@@@Z @ 524 NONAME ; void CFepLayoutMultiLineIcf::SetBgImgSkinId(class TAknsItemID)
	?SetLanguageId@CFepLayoutMultiLineIcf@@UAEXH@Z @ 525 NONAME ; void CFepLayoutMultiLineIcf::SetLanguageId(int)
	?SetLineSeparatorAfterPrompt@CFepLayoutMultiLineIcf@@UAEXH@Z @ 526 NONAME ; void CFepLayoutMultiLineIcf::SetLineSeparatorAfterPrompt(int)
	?SetLineSpace@CFepLayoutMultiLineIcf@@UAEXH@Z @ 527 NONAME ; void CFepLayoutMultiLineIcf::SetLineSpace(int)
	?SetMsgBubbleCtrlSize@CFepLayoutMultiLineIcfEditor@@QAEXABVTSize@@@Z @ 528 NONAME ; void CFepLayoutMultiLineIcfEditor::SetMsgBubbleCtrlSize(class TSize const &)
	?SetParent@CFepUiBaseCtrl@@QAEXPAV1@@Z @ 529 NONAME ; void CFepUiBaseCtrl::SetParent(class CFepUiBaseCtrl *)
	?SetPosition@CFepUiCursor@@QAEXABVTPoint@@@Z @ 530 NONAME ; void CFepUiCursor::SetPosition(class TPoint const &)
	?SetTextIsSecret@CFepLayoutMultiLineIcf@@UAEXH@Z @ 531 NONAME ; void CFepLayoutMultiLineIcf::SetTextIsSecret(int)
	?SetTextMargin@CFepLayoutMultiLineIcf@@UAEXHHHH@Z @ 532 NONAME ; void CFepLayoutMultiLineIcf::SetTextMargin(int, int, int, int)
	?ShowBubble@CFepLayoutMultiLineIcfEditor@@QAEXABVTDesC16@@ABVTRect@@@Z @ 533 NONAME ; void CFepLayoutMultiLineIcfEditor::ShowBubble(class TDesC16 const &, class TRect const &)
	?TextIsSecret@CFepLayoutMultiLineIcf@@UBEHXZ @ 534 NONAME ; int CFepLayoutMultiLineIcf::TextIsSecret(void) const
	?UpdateAreaImmed@CFepUiBaseCtrl@@QAEXABVTRect@@H@Z @ 535 NONAME ; void CFepUiBaseCtrl::UpdateAreaImmed(class TRect const &, int)
	?UpdateValidRegion@CFepUiCursor@@UAEXPAVCFepUiBaseCtrl@@H@Z @ 536 NONAME ; void CFepUiCursor::UpdateValidRegion(class CFepUiBaseCtrl *, int)
	?SetBackgroundBitmapL@CFepLayoutMultiLineIcf@@UAEXPAVCFbsBitmap@@@Z @ 537 NONAME ; void CFepLayoutMultiLineIcf::SetBackgroundBitmapL(class CFbsBitmap *)
	?UpdateSecretTextL@CFepLayoutMultiLineIcf@@UAEXXZ @ 538 NONAME ; void CFepLayoutMultiLineIcf::UpdateSecretTextL(void)
	?SetPositionFromOutside@CFepUiLayout@@UAEXABVTPoint@@@Z @ 539 NONAME ; void CFepUiLayout::SetPositionFromOutside(class TPoint const &)
	?ReDrawRect@CFepLayoutPopupWnd@@UAEXABVTRect@@@Z @ 540 NONAME ; void CFepLayoutPopupWnd::ReDrawRect(class TRect const &)
	__E32Dll @ 541 NONAME ABSENT ; void CFepLayoutMultiLineIcfEditor::ReDrawRect(class TRect const &)
	?ReDrawRect@CFepLayoutMultiLineIcf@@UAEXABVTRect@@@Z @ 542 NONAME ; void CFepLayoutMultiLineIcf::ReDrawRect(class TRect const &)
	?SetDisplayUnicodeL@CVirtualKey@@QAEXABVTDesC16@@@Z @ 543 NONAME ; void CVirtualKey::SetDisplayUnicodeL(class TDesC16 const &)
	?DrawControlGroupBackground@CControlGroup@@MAEXABVTRect@@@Z @ 544 NONAME ; void CControlGroup::DrawControlGroupBackground(class TRect const &)
	?CancelPointerDownL@CDragBar@@UAEXXZ @ 545 NONAME ; void CDragBar::CancelPointerDownL(void)
	?SetVirtualKeyImgID@CVirtualKeyboard@@QAEXUTVirtualKeyDrawInfo@@@Z @ 546 NONAME ; void CVirtualKeyboard::SetVirtualKeyImgID(struct TVirtualKeyDrawInfo)
	?DelayCursorWhileDraging@CFepUiCursor@@QAEXXZ @ 547 NONAME ; void CFepUiCursor::DelayCursorWhileDraging(void)
	?DelayCursorWhileDraging@CInsertionPoint@@QAEXXZ @ 548 NONAME ; void CInsertionPoint::DelayCursorWhileDraging(void)
	?NewL@CInsertionPoint@@SAPAV1@PAVCFepUiBaseCtrl@@PAVCFbsBitmapDevice@@PAVCBitmapContext@@H@Z @ 549 NONAME ; class CInsertionPoint * CInsertionPoint::NewL(class CFepUiBaseCtrl *, class CFbsBitmapDevice *, class CBitmapContext *, int)
	?Position@CFepUiCursor@@QAE?AVTPoint@@XZ @ 550 NONAME ; class TPoint CFepUiCursor::Position(void)
	?SetHeight@CFepUiCursor@@QAEXH@Z @ 551 NONAME ; void CFepUiCursor::SetHeight(int)
	?SetHeight@CInsertionPoint@@QAEXH@Z @ 552 NONAME ; void CInsertionPoint::SetHeight(int)
	?SetOn@CFepUiCursor@@QAEXHH@Z @ 553 NONAME ; void CFepUiCursor::SetOn(int,int)
	?SetOn@CInsertionPoint@@QAEXH@Z @ 554 NONAME ; void CInsertionPoint::SetOn(int)
	?UpdateValidRegion@CFepLayoutMultiLineIcf@@UAEXPAVCFepUiBaseCtrl@@H@Z @ 555 NONAME ; void CFepLayoutMultiLineIcf::UpdateValidRegion(class CFepUiBaseCtrl *, int)
	?SetOrdinalPos@CFepUiBaseCtrl@@QAEXH@Z @ 556 NONAME ; void CFepUiBaseCtrl::SetOrdinalPos(int)
	?SetShiftIcon@CVirtualKeyboard@@QAEXPAVCPenInputColorIcon@@@Z @ 557 NONAME ; void CVirtualKeyboard::SetShiftIcon(class CPenInputColorIcon *)
	??0CControlGroup@@IAE@PAVCFepUiLayout@@HH@Z @ 558 NONAME ; CControlGroup::CControlGroup(class CFepUiLayout *, int, int)
	?NewL@CControlGroup@@SAPAV1@PAVCFepUiLayout@@HH@Z @ 559 NONAME ; class CControlGroup * CControlGroup::NewL(class CFepUiLayout *, int, int)
	?SetNumberGrouping@CFepLayoutMultiLineIcf@@QAEXH@Z @ 560 NONAME ; void CFepLayoutMultiLineIcf::SetNumberGrouping(int)
	?DelayCursorShown@CFepUiCursor@@QAEXXZ @ 561 NONAME ; void CFepUiCursor::DelayCursorShown(void)
	?PenTraceDecorationActivated@CTransparentHwrWnd@@QAEHXZ @ 562 NONAME ; int CTransparentHwrWnd::PenTraceDecorationActivated(void)
	?SupportPenTraceDecoration@CTransparentHwrWnd@@QAEHXZ @ 563 NONAME ; int CTransparentHwrWnd::SupportPenTraceDecoration(void)
	?InstallPenTraceDecoratorL@CTransparentHwrWnd@@QAEHABVTDesC16@@H@Z @ 564 NONAME ; int CTransparentHwrWnd::InstallPenTraceDecoratorL(class TDesC16 const &, int)
	?ClearStroke@CHwrWndBase@@UAEXXZ @ 565 NONAME ; void CHwrWndBase::ClearStroke(void)
	?EnableKeyFeedback@CVirtualKeyboard@@QAEXPAVCVirtualKey@@H@Z @ 566 NONAME ; void CVirtualKeyboard::EnableKeyFeedback(class CVirtualKey *, int)
	?ActivatePenTraceDecoration@CTransparentHwrWnd@@QAEXHH@Z @ 567 NONAME ; void CTransparentHwrWnd::ActivatePenTraceDecoration(int, int)
	?ClearStroke@CTransparentHwrWnd@@UAEXXZ @ 568 NONAME ; void CTransparentHwrWnd::ClearStroke(void)
	?HideKeyCtrl@CVirtualKey@@QAEXH@Z @ 569 NONAME ; void CVirtualKey::HideKeyCtrl(int)
	?HideTooltip@CFepLayoutMultiLineIcf@@QAEXXZ @ 570 NONAME ; void CFepLayoutMultiLineIcf::HideTooltip(void)
	?ShowTooltipL@CFepLayoutMultiLineIcf@@QAEXABVTDesC16@@@Z @ 571 NONAME ; void CFepLayoutMultiLineIcf::ShowTooltipL(class TDesC16 const &)
	?TooltipBubbleCtrl@CFepLayoutMultiLineIcf@@QAEPAVCTooltipBubbleCtrl@@XZ @ 572 NONAME ; class CTooltipBubbleCtrl * CFepLayoutMultiLineIcf::TooltipBubbleCtrl(void)
	?RegisterFeedbackArea@CFepUiLayout@@QAEXHABVTRect@@H@Z @ 573 NONAME ; void CFepUiLayout::RegisterFeedbackArea(int, class TRect const &, int)
	?ChangeFeedbackType@CFepUiLayout@@QAEXHH@Z @ 574 NONAME ; void CFepUiLayout::ChangeFeedbackType(int, int)	
	?SetTactileFeedbackType@CFepUiBaseCtrl@@QAEXH@Z @ 575 NONAME ; void CFepUiBaseCtrl::SetTactileFeedbackType(int)
	?TactileFeedbackType@CFepUiBaseCtrlExtension@CFepUiBaseCtrl@@QAEHXZ @ 576 NONAME ; int CFepUiBaseCtrl::CFepUiBaseCtrlExtension::TactileFeedbackType(void)
	?DoTactileFeedback@CFepUiLayout@@QAEXHHH@Z @ 577 NONAME ; void CFepUiLayout::DoTactileFeedback(int, int, int)
	?InfoBubbleCtrl@CFepLayoutMultiLineIcf@@UAEPAVCBubbleCtrl@@XZ @ 578 NONAME ; class CBubbleCtrl * CFepLayoutMultiLineIcf::InfoBubbleCtrl(void)
	?ShowByteWarningBubble@CFepLayoutMultiLineIcf@@UAEXABVTDesC16@@@Z @ 579 NONAME ; void CFepLayoutMultiLineIcf::ShowByteWarningBubble(class TDesC16 const &)
	?SetInfoBubbleCtrlSize@CFepLayoutMultiLineIcfEditor@@QAEXABVTSize@@@Z @ 580 NONAME ; void CFepLayoutMultiLineIcfEditor::SetInfoBubbleCtrlSize(class TSize const &)
	?HideInfoBubble@CFepLayoutMultiLineIcfEditor@@QAEXXZ @ 581 NONAME ; void CFepLayoutMultiLineIcfEditor::HideInfoBubble(void)
	?HideInfoBubble@CFepLayoutMultiLineIcf@@UAEXXZ @ 582 NONAME ; void CFepLayoutMultiLineIcf::HideInfoBubble(void)
	?SetInfoBubbleCtrlSize@CFepLayoutMultiLineIcf@@UAEXABVTSize@@@Z @ 583 NONAME ; void CFepLayoutMultiLineIcf::SetInfoBubbleCtrlSize(class TSize const &)
	?ShowByteWarningBubble@CFepLayoutMultiLineIcfEditor@@QAEXABVTDesC16@@@Z @ 584 NONAME ; void CFepLayoutMultiLineIcfEditor::ShowByteWarningBubble(class TDesC16 const &)
