EXPORTS
	??0CAknFepCtrlBaseWindow@@IAE@PAVCFepUiLayout@@H@Z @ 1 NONAME ; CAknFepCtrlBaseWindow::CAknFepCtrlBaseWindow(class CFepUiLayout *, int)
	??0CAknFepCtrlButton@@IAE@PAVCFepUiLayout@@H@Z @ 2 NONAME ; CAknFepCtrlButton::CAknFepCtrlButton(class CFepUiLayout *, int)
	??0CAknFepCtrlDragButton@@IAE@PAVCFepUiLayout@@H@Z @ 3 NONAME ; CAknFepCtrlDragButton::CAknFepCtrlDragButton(class CFepUiLayout *, int)
	??0CAknFepCtrlEventButton@@IAE@PAVCFepUiLayout@@HHH@Z @ 4 NONAME ABSENT ; CAknFepCtrlEventButton::CAknFepCtrlEventButton(class CFepUiLayout *, int, int, int)
	??0CAknFepCtrlMultiModeButton@@IAE@PAVCFepUiLayout@@H@Z @ 5 NONAME ABSENT ; CAknFepCtrlMultiModeButton::CAknFepCtrlMultiModeButton(class CFepUiLayout *, int)
	??0CAknFepCtrlRangeBar@@IAE@PAVCFepUiLayout@@HW4TButtonGroupStyle@0@@Z @ 6 NONAME ; CAknFepCtrlRangeBar::CAknFepCtrlRangeBar(class CFepUiLayout *, int, enum CAknFepCtrlRangeBar::TButtonGroupStyle)
	??0CAknFepCtrlRepeatButton@@IAE@PAVCFepUiLayout@@HHH@Z @ 7 NONAME ABSENT ; CAknFepCtrlRepeatButton::CAknFepCtrlRepeatButton(class CFepUiLayout *, int, int, int)
	??0CPeninputVkbCtrlExt@@IAE@ABVTRect@@PAVCFepUiLayout@@HABVTFontSpec@@@Z @ 8 NONAME ABSENT ; CPeninputVkbCtrlExt::CPeninputVkbCtrlExt(class TRect const &, class CFepUiLayout *, int, class TFontSpec const &)
	??1CAknFepCtrlBaseWindow@@UAE@XZ @ 9 NONAME ; CAknFepCtrlBaseWindow::~CAknFepCtrlBaseWindow(void)
	??1CAknFepCtrlButton@@UAE@XZ @ 10 NONAME ; CAknFepCtrlButton::~CAknFepCtrlButton(void)
	??1CAknFepCtrlDragButton@@UAE@XZ @ 11 NONAME ; CAknFepCtrlDragButton::~CAknFepCtrlDragButton(void)
	??1CAknFepCtrlEventButton@@UAE@XZ @ 12 NONAME ; CAknFepCtrlEventButton::~CAknFepCtrlEventButton(void)
	??1CAknFepCtrlMultiModeButton@@UAE@XZ @ 13 NONAME ; CAknFepCtrlMultiModeButton::~CAknFepCtrlMultiModeButton(void)
	??1CAknFepCtrlRangeBar@@UAE@XZ @ 14 NONAME ; CAknFepCtrlRangeBar::~CAknFepCtrlRangeBar(void)
	??1CAknFepCtrlRepeatButton@@UAE@XZ @ 15 NONAME ; CAknFepCtrlRepeatButton::~CAknFepCtrlRepeatButton(void)
	??1CAknFepCtrlVkbLayout@@UAE@XZ @ 16 NONAME ; CAknFepCtrlVkbLayout::~CAknFepCtrlVkbLayout(void)
	??1CFepCtrlDropdownList@@UAE@XZ @ 17 NONAME ; CFepCtrlDropdownList::~CFepCtrlDropdownList(void)
	??1CPeninputVkbCtrlExt@@UAE@XZ @ 18 NONAME ; CPeninputVkbCtrlExt::~CPeninputVkbCtrlExt(void)
	??1CPeninputVkbKeyInfo@@UAE@XZ @ 19 NONAME ; CPeninputVkbKeyInfo::~CPeninputVkbKeyInfo(void)
	??1CPeninputVkbLayoutInfo@@UAE@XZ @ 20 NONAME ; CPeninputVkbLayoutInfo::~CPeninputVkbLayoutInfo(void)
	?ActiveRange@CAknFepCtrlRangeBar@@QAEXH@Z @ 21 NONAME ; void CAknFepCtrlRangeBar::ActiveRange(int)
	?AddModeL@CAknFepCtrlMultiModeButton@@QAEXAAVTResourceReader@@@Z @ 22 NONAME ; void CAknFepCtrlMultiModeButton::AddModeL(class TResourceReader &)
	?AddRangeL@CAknFepCtrlRangeBar@@QAEXAAVTResourceReader@@@Z @ 23 NONAME ; void CAknFepCtrlRangeBar::AddRangeL(class TResourceReader &)
	?BaseConstructL@CAknFepCtrlBaseWindow@@IAEXXZ @ 24 NONAME ; void CAknFepCtrlBaseWindow::BaseConstructL(void)
	?CancelDims@CPeninputVkbCtrlExt@@QAEXXZ @ 25 NONAME ; void CPeninputVkbCtrlExt::CancelDims(void)
	?CancelRepeat@CAknFepCtrlRepeatButton@@QAEXXZ @ 26 NONAME ; void CAknFepCtrlRepeatButton::CancelRepeat(void)
	?CandidateCount@CFepCtrlDropdownList@@UBEHXZ @ 27 NONAME ; int CFepCtrlDropdownList::CandidateCount(void) const
	?ChangeVkbLayout@CAknFepCtrlVkbLayout@@QAEXH@Z @ 28 NONAME ; void CAknFepCtrlVkbLayout::ChangeVkbLayout(int)
	?Close@CAknFepCtrlBaseWindow@@QAEXXZ @ 29 NONAME ; void CAknFepCtrlBaseWindow::Close(void)
	?ConstructFromResourceL@CAknFepCtrlButton@@QAEXAAVTResourceReader@@@Z @ 30 NONAME ; void CAknFepCtrlButton::ConstructFromResourceL(class TResourceReader &)
	?ConstructFromResourceL@CAknFepCtrlButton@@UAEXXZ @ 31 NONAME ; void CAknFepCtrlButton::ConstructFromResourceL(void)
	?ConstructFromResourceL@CAknFepCtrlDragButton@@QAEXAAVTResourceReader@@@Z @ 32 NONAME ; void CAknFepCtrlDragButton::ConstructFromResourceL(class TResourceReader &)
	?ConstructFromResourceL@CAknFepCtrlDragButton@@UAEXXZ @ 33 NONAME ; void CAknFepCtrlDragButton::ConstructFromResourceL(void)
	?ConstructFromResourceL@CAknFepCtrlMultiModeButton@@QAEXAAVTResourceReader@@@Z @ 34 NONAME ; void CAknFepCtrlMultiModeButton::ConstructFromResourceL(class TResourceReader &)
	?ConstructFromResourceL@CAknFepCtrlMultiModeButton@@UAEXXZ @ 35 NONAME ; void CAknFepCtrlMultiModeButton::ConstructFromResourceL(void)
	?ConstructFromResourceL@CAknFepCtrlRangeBar@@QAEXAAVTResourceReader@@@Z @ 36 NONAME ; void CAknFepCtrlRangeBar::ConstructFromResourceL(class TResourceReader &)
	?ConstructFromResourceL@CAknFepCtrlVkbLayout@@QAEXXZ @ 37 NONAME ; void CAknFepCtrlVkbLayout::ConstructFromResourceL(void)
	?ConstructFromResourceL@CFepCtrlDropdownList@@UAEXXZ @ 38 NONAME ; void CFepCtrlDropdownList::ConstructFromResourceL(void)
	?ConstructL@CAknFepCtrlRangeBar@@IAEXXZ @ 39 NONAME ; void CAknFepCtrlRangeBar::ConstructL(void)
	?ConstructL@CAknFepCtrlRepeatButton@@IAEXXZ @ 40 NONAME ; void CAknFepCtrlRepeatButton::ConstructL(void)
	?Control@CAknFepCtrlBaseWindow@@QAEPAVCFepUiBaseCtrl@@H@Z @ 41 NONAME ; class CFepUiBaseCtrl * CAknFepCtrlBaseWindow::Control(int)
	?CurrentRange@CAknFepCtrlMultiModeButton@@QBEHXZ @ 42 NONAME ; int CAknFepCtrlMultiModeButton::CurrentRange(void) const
	?DimKeys@CPeninputVkbCtrlExt@@QAEXPBVHBufC16@@@Z @ 43 NONAME ; void CPeninputVkbCtrlExt::DimKeys(class HBufC16 const *)
	?DisableAllModes@CAknFepCtrlMultiModeButton@@QAEXXZ @ 44 NONAME ; void CAknFepCtrlMultiModeButton::DisableAllModes(void)
	?DisplayText@CAknFepCtrlEventButton@@IAEXXZ @ 45 NONAME ; void CAknFepCtrlEventButton::DisplayText(void)
	?DisplayText@CAknFepCtrlMultiModeButton@@IAEXXZ @ 46 NONAME ; void CAknFepCtrlMultiModeButton::DisplayText(void)
	?DoClose@CAknFepCtrlBaseWindow@@MAEHXZ @ 47 NONAME ; int CAknFepCtrlBaseWindow::DoClose(void)
	?Draw@CAknFepCtrlBaseWindow@@UAEXXZ @ 48 NONAME ; void CAknFepCtrlBaseWindow::Draw(void)
	?Draw@CAknFepCtrlButton@@UAEXXZ @ 49 NONAME ; void CAknFepCtrlButton::Draw(void)
	?Draw@CAknFepCtrlEventButton@@UAEXXZ @ 50 NONAME ; void CAknFepCtrlEventButton::Draw(void)
	?Draw@CAknFepCtrlMultiModeButton@@MAEXXZ @ 51 NONAME ; void CAknFepCtrlMultiModeButton::Draw(void)
	?Draw@CAknFepCtrlRangeBar@@UAEXXZ @ 52 NONAME ; void CAknFepCtrlRangeBar::Draw(void)
	?Draw@CFepCtrlDropdownList@@UAEXXZ @ 53 NONAME ; void CFepCtrlDropdownList::Draw(void)
	?EnableAllModes@CAknFepCtrlMultiModeButton@@QAEXXZ @ 54 NONAME ; void CAknFepCtrlMultiModeButton::EnableAllModes(void)
	?EnableSecondary@CFepCtrlDropdownList@@QAEXHH@Z @ 55 NONAME ; void CFepCtrlDropdownList::EnableSecondary(int, int)
	?Event@CAknFepCtrlEventButton@@QBEHXZ @ 56 NONAME ; int CAknFepCtrlEventButton::Event(void) const
	?FindKey@CPeninputVkbLayoutInfo@@QBEPAVCPeninputVkbKeyInfo@@H@Z @ 57 NONAME ; class CPeninputVkbKeyInfo * CPeninputVkbLayoutInfo::FindKey(int) const
	?FoldList@CFepCtrlDropdownList@@QAEXXZ @ 58 NONAME ; void CFepCtrlDropdownList::FoldList(void)
	?GetCase@CAknFepCtrlRangeBar@@QBEHH@Z @ 59 NONAME ; int CAknFepCtrlRangeBar::GetCase(int) const
	?GetRealSize@CPeninputVkbLayoutInfo@@QBE?BVTSize@@HH@Z @ 60 NONAME ; class TSize const CPeninputVkbLayoutInfo::GetRealSize(int, int) const
	?HandleControlEvent@CAknFepCtrlBaseWindow@@UAEXHPAVCFepUiBaseCtrl@@ABVTDesC16@@@Z @ 61 NONAME ; void CAknFepCtrlBaseWindow::HandleControlEvent(int, class CFepUiBaseCtrl *, class TDesC16 const &)
	?HandleControlEvent@CAknFepCtrlRangeBar@@MAEXHPAVCFepUiBaseCtrl@@ABVTDesC16@@@Z @ 62 NONAME ; void CAknFepCtrlRangeBar::HandleControlEvent(int, class CFepUiBaseCtrl *, class TDesC16 const &)
	?HandleControlEvent@CFepCtrlDropdownList@@UAEXHPAVCFepUiBaseCtrl@@ABVTDesC16@@@Z @ 63 NONAME ; void CFepCtrlDropdownList::HandleControlEvent(int, class CFepUiBaseCtrl *, class TDesC16 const &)
	?HandlePointerDownEventL@CAknFepCtrlRepeatButton@@MAEPAVCFepUiBaseCtrl@@ABVTPoint@@@Z @ 64 NONAME ; class CFepUiBaseCtrl * CAknFepCtrlRepeatButton::HandlePointerDownEventL(class TPoint const &)
	?HandlePointerDownEventL@CFepCtrlDropdownList@@UAEPAVCFepUiBaseCtrl@@ABVTPoint@@@Z @ 65 NONAME ; class CFepUiBaseCtrl * CFepCtrlDropdownList::HandlePointerDownEventL(class TPoint const &)
	?HandlePointerLeave@CAknFepCtrlRepeatButton@@MAEXABVTPoint@@@Z @ 66 NONAME ; void CAknFepCtrlRepeatButton::HandlePointerLeave(class TPoint const &)
	?HandlePointerLeave@CFepCtrlDropdownList@@UAEXABVTPoint@@@Z @ 67 NONAME ; void CFepCtrlDropdownList::HandlePointerLeave(class TPoint const &)
	?HandlePointerMoveEventL@CFepCtrlDropdownList@@UAEPAVCFepUiBaseCtrl@@ABVTPoint@@@Z @ 68 NONAME ; class CFepUiBaseCtrl * CFepCtrlDropdownList::HandlePointerMoveEventL(class TPoint const &)
	?HandlePointerUpEventL@CAknFepCtrlEventButton@@UAEPAVCFepUiBaseCtrl@@ABVTPoint@@@Z @ 69 NONAME ; class CFepUiBaseCtrl * CAknFepCtrlEventButton::HandlePointerUpEventL(class TPoint const &)
	?HandlePointerUpEventL@CAknFepCtrlRepeatButton@@MAEPAVCFepUiBaseCtrl@@ABVTPoint@@@Z @ 70 NONAME ; class CFepUiBaseCtrl * CAknFepCtrlRepeatButton::HandlePointerUpEventL(class TPoint const &)
	?HandlePointerUpEventL@CFepCtrlDropdownList@@UAEPAVCFepUiBaseCtrl@@ABVTPoint@@@Z @ 71 NONAME ; class CFepUiBaseCtrl * CFepCtrlDropdownList::HandlePointerUpEventL(class TPoint const &)
	?HandleTimerOut@CAknFepCtrlRepeatButton@@UAEXPBVCAknFepTimer@@@Z @ 72 NONAME ; void CAknFepCtrlRepeatButton::HandleTimerOut(class CAknFepTimer const *)
	?HideRange@CAknFepCtrlRangeBar@@QAEXH@Z @ 73 NONAME ; void CAknFepCtrlRangeBar::HideRange(int)
	?ImageAlreadyExist@CAknFepCtrlMultiModeButton@@IAEHJ@Z @ 74 NONAME ; int CAknFepCtrlMultiModeButton::ImageAlreadyExist(long)
	?IsEnableSecondary@CFepCtrlDropdownList@@UBEHXZ @ 75 NONAME ; int CFepCtrlDropdownList::IsEnableSecondary(void) const
	?IsGivenRangeSupported@CAknFepCtrlMultiModeButton@@QAEHH@Z @ 76 NONAME ; int CAknFepCtrlMultiModeButton::IsGivenRangeSupported(int)
	?Move@CAknFepCtrlRangeBar@@UAEXABVTPoint@@@Z @ 77 NONAME ; void CAknFepCtrlRangeBar::Move(class TPoint const &)
	?Move@CFepCtrlDropdownList@@UAEXABVTPoint@@@Z @ 78 NONAME ; void CFepCtrlDropdownList::Move(class TPoint const &)
	?Move@CPeninputVkbCtrlExt@@UAEXABVTPoint@@@Z @ 79 NONAME ; void CPeninputVkbCtrlExt::Move(class TPoint const &)
	?MoveKeys@CPeninputVkbLayoutInfo@@QAEXABVTPoint@@@Z @ 80 NONAME ; void CPeninputVkbLayoutInfo::MoveKeys(class TPoint const &)
	?NewL@CAknFepCtrlButton@@SAPAV1@PAVCFepUiLayout@@H@Z @ 81 NONAME ; class CAknFepCtrlButton * CAknFepCtrlButton::NewL(class CFepUiLayout *, int)
	?NewL@CAknFepCtrlDragButton@@SAPAV1@PAVCFepUiLayout@@H@Z @ 82 NONAME ; class CAknFepCtrlDragButton * CAknFepCtrlDragButton::NewL(class CFepUiLayout *, int)
	?NewL@CAknFepCtrlEventButton@@SAPAV1@PAVCFepUiLayout@@HHH@Z @ 83 NONAME ABSENT ; class CAknFepCtrlEventButton * CAknFepCtrlEventButton::NewL(class CFepUiLayout *, int, int, int)
	?NewL@CAknFepCtrlMultiModeButton@@SAPAV1@PAVCFepUiLayout@@H@Z @ 84 NONAME ABSENT ; class CAknFepCtrlMultiModeButton * CAknFepCtrlMultiModeButton::NewL(class CFepUiLayout *, int)
	?NewL@CAknFepCtrlRangeBar@@SAPAV1@PAVCFepUiLayout@@HW4TButtonGroupStyle@1@@Z @ 85 NONAME ; class CAknFepCtrlRangeBar * CAknFepCtrlRangeBar::NewL(class CFepUiLayout *, int, enum CAknFepCtrlRangeBar::TButtonGroupStyle)
	?NewL@CAknFepCtrlRepeatButton@@SAPAV1@PAVCFepUiLayout@@HHH@Z @ 86 NONAME ABSENT ; class CAknFepCtrlRepeatButton * CAknFepCtrlRepeatButton::NewL(class CFepUiLayout *, int, int, int)
	?NewL@CAknFepCtrlVkbLayout@@SAPAV1@XZ @ 87 NONAME ; class CAknFepCtrlVkbLayout * CAknFepCtrlVkbLayout::NewL(void)
	?NewL@CFepCtrlDropdownList@@SAPAV1@ABVTPoint@@PAVCFepUiLayout@@HAAVTResourceReader@@HHHHHPBVCFont@@PAVMListEventHandler@@W4TTextAlign@CGraphicsContext@@HVTRgb@@6666666@Z @ 88 NONAME ; class CFepCtrlDropdownList * CFepCtrlDropdownList::NewL(class TPoint const &, class CFepUiLayout *, int, class TResourceReader &, int, int, int, int, int, class CFont const *, class MListEventHandler *, enum CGraphicsContext::TTextAlign, int, class TRgb, class TRgb, class TRgb, class TRgb, class TRgb, class TRgb, class TRgb, class TRgb)
	?NewL@CPeninputVkbCtrlExt@@SAPAV1@ABVTRect@@PAVCFepUiLayout@@HPBVCFont@@@Z @ 89 NONAME ABSENT ; class CPeninputVkbCtrlExt * CPeninputVkbCtrlExt::NewL(class TRect const &, class CFepUiLayout *, int, class CFont const *)
	?NewL@CPeninputVkbKeyInfo@@SAPAV1@AAVTResourceReader@@@Z @ 90 NONAME ; class CPeninputVkbKeyInfo * CPeninputVkbKeyInfo::NewL(class TResourceReader &)
	?NewL@CPeninputVkbLayoutInfo@@SAPAV1@AAVTResourceReader@@@Z @ 91 NONAME ; class CPeninputVkbLayoutInfo * CPeninputVkbLayoutInfo::NewL(class TResourceReader &)
	?NewLC@CAknFepCtrlButton@@SAPAV1@PAVCFepUiLayout@@H@Z @ 92 NONAME ; class CAknFepCtrlButton * CAknFepCtrlButton::NewLC(class CFepUiLayout *, int)
	?NewLC@CAknFepCtrlDragButton@@SAPAV1@PAVCFepUiLayout@@H@Z @ 93 NONAME ; class CAknFepCtrlDragButton * CAknFepCtrlDragButton::NewLC(class CFepUiLayout *, int)
	?NewLC@CAknFepCtrlEventButton@@SAPAV1@PAVCFepUiLayout@@HHH@Z @ 94 NONAME ABSENT ; class CAknFepCtrlEventButton * CAknFepCtrlEventButton::NewLC(class CFepUiLayout *, int, int, int)
	?NewLC@CAknFepCtrlMultiModeButton@@SAPAV1@PAVCFepUiLayout@@H@Z @ 95 NONAME ABSENT ; class CAknFepCtrlMultiModeButton * CAknFepCtrlMultiModeButton::NewLC(class CFepUiLayout *, int)
	?NewLC@CAknFepCtrlRangeBar@@SAPAV1@PAVCFepUiLayout@@HW4TButtonGroupStyle@1@@Z @ 96 NONAME ; class CAknFepCtrlRangeBar * CAknFepCtrlRangeBar::NewLC(class CFepUiLayout *, int, enum CAknFepCtrlRangeBar::TButtonGroupStyle)
	?NewLC@CAknFepCtrlRepeatButton@@SAPAV1@PAVCFepUiLayout@@HHH@Z @ 97 NONAME ABSENT ; class CAknFepCtrlRepeatButton * CAknFepCtrlRepeatButton::NewLC(class CFepUiLayout *, int, int, int)
	?NewLC@CAknFepCtrlVkbLayout@@SAPAV1@XZ @ 98 NONAME ; class CAknFepCtrlVkbLayout * CAknFepCtrlVkbLayout::NewLC(void)
	?NewLC@CFepCtrlDropdownList@@SAPAV1@ABVTPoint@@PAVCFepUiLayout@@HAAVTResourceReader@@HHHHHPBVCFont@@PAVMListEventHandler@@W4TTextAlign@CGraphicsContext@@HVTRgb@@6666666@Z @ 99 NONAME ; class CFepCtrlDropdownList * CFepCtrlDropdownList::NewLC(class TPoint const &, class CFepUiLayout *, int, class TResourceReader &, int, int, int, int, int, class CFont const *, class MListEventHandler *, enum CGraphicsContext::TTextAlign, int, class TRgb, class TRgb, class TRgb, class TRgb, class TRgb, class TRgb, class TRgb, class TRgb)
	?NewLC@CPeninputVkbLayoutInfo@@SAPAV1@AAVTResourceReader@@@Z @ 100 NONAME ; class CPeninputVkbLayoutInfo * CPeninputVkbLayoutInfo::NewLC(class TResourceReader &)
	?NextMode@CAknFepCtrlMultiModeButton@@QBEHXZ @ 101 NONAME ; int CAknFepCtrlMultiModeButton::NextMode(void) const
	?OnDeActivate@CFepCtrlDropdownList@@UAEXXZ @ 102 NONAME ; void CFepCtrlDropdownList::OnDeActivate(void)
	?RangeOfGivenMode@CAknFepCtrlMultiModeButton@@QBEHH@Z @ 103 NONAME ; int CAknFepCtrlMultiModeButton::RangeOfGivenMode(int) const
	?Rect@CFepCtrlDropdownList@@QAEABVTRect@@XZ @ 104 NONAME ; class TRect const & CFepCtrlDropdownList::Rect(void)
	?RefreshUI@CAknFepCtrlRangeBar@@QAEXXZ @ 105 NONAME ; void CAknFepCtrlRangeBar::RefreshUI(void)
	?ReorganizeVkbKeys@CPeninputVkbCtrlExt@@QAEXPAVCPeninputVkbLayoutInfo@@@Z @ 106 NONAME ; void CPeninputVkbCtrlExt::ReorganizeVkbKeys(class CPeninputVkbLayoutInfo *)
	?Reset@CAknFepCtrlVkbLayout@@QAEXXZ @ 107 NONAME ; void CAknFepCtrlVkbLayout::Reset(void)
	?Reset@CPeninputVkbCtrlExt@@QAEXXZ @ 108 NONAME ; void CPeninputVkbCtrlExt::Reset(void)
	?ResetAndClear@CFepCtrlDropdownList@@QAEXW4TListType@1@@Z @ 109 NONAME ; void CFepCtrlDropdownList::ResetAndClear(enum CFepCtrlDropdownList::TListType)
	?ResetSize@CPeninputVkbLayoutInfo@@QAEXHHHHABVTPoint@@PBVCFont@@@Z @ 110 NONAME ; void CPeninputVkbLayoutInfo::ResetSize(int, int, int, int, class TPoint const &, class CFont const *)
	?SetActionStyle@CAknFepCtrlRangeBar@@QAEXW4TRangeBarActionStyle@1@@Z @ 111 NONAME ; void CAknFepCtrlRangeBar::SetActionStyle(enum CAknFepCtrlRangeBar::TRangeBarActionStyle)
	?SetActive@CAknFepCtrlButton@@UAEXH@Z @ 112 NONAME ; void CAknFepCtrlButton::SetActive(int)
	?SetActive@CFepCtrlDropdownList@@UAEXH@Z @ 113 NONAME ; void CFepCtrlDropdownList::SetActive(int)
	?SetBgColor@CFepCtrlDropdownList@@QAEXVTRgb@@H@Z @ 114 NONAME ; void CFepCtrlDropdownList::SetBgColor(class TRgb, int)
	?SetBorderColor@CFepCtrlDropdownList@@QAEXVTRgb@@H@Z @ 115 NONAME ; void CFepCtrlDropdownList::SetBorderColor(class TRgb, int)
	?SetButtonBmpL@CAknFepCtrlMultiModeButton@@IAEXW4TButtonBmpType@@H@Z @ 116 NONAME ; void CAknFepCtrlMultiModeButton::SetButtonBmpL(enum TButtonBmpType, int)
	?SetCandidatesL@CFepCtrlDropdownList@@QAEXABV?$RPointerArray@VHBufC16@@@@W4TListType@1@ABVTDesC16@@@Z @ 117 NONAME ; void CFepCtrlDropdownList::SetCandidatesL(class RPointerArray<class HBufC16> const &, enum CFepCtrlDropdownList::TListType, class TDesC16 const &)
	?SetCaseL@CAknFepCtrlRangeBar@@QAEXHH@Z @ 118 NONAME ; void CAknFepCtrlRangeBar::SetCaseL(int, int)
	?SetCellHeight@CFepCtrlDropdownList@@QAEXH@Z @ 119 NONAME ; void CFepCtrlDropdownList::SetCellHeight(int)
	?SetCellWidth@CFepCtrlDropdownList@@QAEXH@Z @ 120 NONAME ; void CFepCtrlDropdownList::SetCellWidth(int)
	?SetColNum@CFepCtrlDropdownList@@QAEXH@Z @ 121 NONAME ; void CFepCtrlDropdownList::SetColNum(int)
	?SetCurrentModeL@CAknFepCtrlMultiModeButton@@QAEXW4TButtonBmpType@@H@Z @ 122 NONAME ; void CAknFepCtrlMultiModeButton::SetCurrentModeL(enum TButtonBmpType, int)
	?SetDragEnable@CAknFepCtrlBaseWindow@@QAEXH@Z @ 123 NONAME ; void CAknFepCtrlBaseWindow::SetDragEnable(int)
	?SetEvent@CAknFepCtrlEventButton@@QAEXH@Z @ 124 NONAME ; void CAknFepCtrlEventButton::SetEvent(int)
	?SetEventIdForCandidateSelected@CFepCtrlDropdownList@@QAEXH@Z @ 125 NONAME ; void CFepCtrlDropdownList::SetEventIdForCandidateSelected(int)
	?SetEventIdForCase@CAknFepCtrlRangeBar@@QAEXH@Z @ 126 NONAME ; void CAknFepCtrlRangeBar::SetEventIdForCase(int)
	?SetEventIdForRange@CAknFepCtrlRangeBar@@QAEXH@Z @ 127 NONAME ; void CAknFepCtrlRangeBar::SetEventIdForRange(int)
	?SetFont@CAknFepCtrlEventButton@@QAEXPBVCFont@@@Z @ 128 NONAME ; void CAknFepCtrlEventButton::SetFont(class CFont const *)
	?SetFont@CAknFepCtrlRangeBar@@QAEXPBVCFont@@@Z @ 129 NONAME ; void CAknFepCtrlRangeBar::SetFont(class CFont const *)
	?SetFont@CFepCtrlDropdownList@@QAEXPBVCFont@@H@Z @ 130 NONAME ; void CFepCtrlDropdownList::SetFont(class CFont const *, int)
	?SetFontColor@CAknFepCtrlEventButton@@QAEXVTRgb@@@Z @ 131 NONAME ; void CAknFepCtrlEventButton::SetFontColor(class TRgb)
	?SetFontColor@CAknFepCtrlMultiModeButton@@QAEXVTRgb@@@Z @ 132 NONAME ; void CAknFepCtrlMultiModeButton::SetFontColor(class TRgb)
	?SetHighLightBgColor@CFepCtrlDropdownList@@QAEXVTRgb@@H@Z @ 133 NONAME ; void CFepCtrlDropdownList::SetHighLightBgColor(class TRgb, int)
	?SetHighLightTextColor@CFepCtrlDropdownList@@QAEXVTRgb@@H@Z @ 134 NONAME ; void CFepCtrlDropdownList::SetHighLightTextColor(class TRgb, int)
	?SetHighlight@CAknFepCtrlButton@@QAEXH@Z @ 135 NONAME ; void CAknFepCtrlButton::SetHighlight(int)
	?SetHighlightCell@CFepCtrlDropdownList@@QAEXHH@Z @ 136 NONAME ABSENT ; void CFepCtrlDropdownList::SetHighlightCell(int, int)
	?SetListEventHandler@CFepCtrlDropdownList@@QAEXPAVMListEventHandler@@@Z @ 137 NONAME ; void CFepCtrlDropdownList::SetListEventHandler(class MListEventHandler *)
	?SetNaviWidth@CFepCtrlDropdownList@@QAEXH@Z @ 138 NONAME ; void CFepCtrlDropdownList::SetNaviWidth(int)
	?SetNavigationBgColor@CFepCtrlDropdownList@@QAEXVTRgb@@H@Z @ 139 NONAME ; void CFepCtrlDropdownList::SetNavigationBgColor(class TRgb, int)
	?SetPermittedCase@CAknFepCtrlRangeBar@@QAEXHHH@Z @ 140 NONAME ; void CAknFepCtrlRangeBar::SetPermittedCase(int, int, int)
	?SetPermittedModes@CAknFepCtrlMultiModeButton@@QAEHHHH@Z @ 141 NONAME ; int CAknFepCtrlMultiModeButton::SetPermittedModes(int, int, int)
	?SetPermittedRange@CAknFepCtrlMultiModeButton@@QAEHHH@Z @ 142 NONAME ; int CAknFepCtrlMultiModeButton::SetPermittedRange(int, int)
	?SetPermittedRange@CAknFepCtrlRangeBar@@QAEXHH@Z @ 143 NONAME ; void CAknFepCtrlRangeBar::SetPermittedRange(int, int)
	?SetPermittedRanges@CAknFepCtrlRangeBar@@QAEXH@Z @ 144 NONAME ; void CAknFepCtrlRangeBar::SetPermittedRanges(int)
	?SetRange@CAknFepCtrlMultiModeButton@@QAEHH@Z @ 145 NONAME ; int CAknFepCtrlMultiModeButton::SetRange(int)
	?SetRange@CAknFepCtrlRangeBar@@QAEHH@Z @ 146 NONAME ; int CAknFepCtrlRangeBar::SetRange(int)
	?SetRepeatInterval@CAknFepCtrlRepeatButton@@QAEXABVTTimeIntervalMicroSeconds32@@@Z @ 147 NONAME ; void CAknFepCtrlRepeatButton::SetRepeatInterval(class TTimeIntervalMicroSeconds32 const &)
	?SetResourceId@CAknFepCtrlVkbLayout@@QAEXJ@Z @ 148 NONAME ; void CAknFepCtrlVkbLayout::SetResourceId(long)
	?SetRowNum@CFepCtrlDropdownList@@QAEXH@Z @ 149 NONAME ; void CFepCtrlDropdownList::SetRowNum(int)
	?SetSecondaryList@CFepCtrlDropdownList@@QAEXV?$RArray@H@@H@Z @ 150 NONAME ABSENT ; void CFepCtrlDropdownList::SetSecondaryList(class RArray<int>, int)
	?SetShadowFont@CAknFepCtrlEventButton@@QAEXPBVCFont@@@Z @ 151 NONAME ; void CAknFepCtrlEventButton::SetShadowFont(class CFont const *)
	?SetShadowFontColor@CAknFepCtrlEventButton@@QAEXVTRgb@@@Z @ 152 NONAME ; void CAknFepCtrlEventButton::SetShadowFontColor(class TRgb)
	?SetShadowFontColor@CAknFepCtrlMultiModeButton@@QAEXVTRgb@@@Z @ 153 NONAME ; void CAknFepCtrlMultiModeButton::SetShadowFontColor(class TRgb)
	?SetSpecialTextColor@CFepCtrlDropdownList@@QAEXVTRgb@@H@Z @ 154 NONAME ; void CFepCtrlDropdownList::SetSpecialTextColor(class TRgb, int)
	?SetText@CAknFepCtrlEventButton@@QAEXABVTDesC16@@@Z @ 155 NONAME ; void CAknFepCtrlEventButton::SetText(class TDesC16 const &)
	?SetTextAlighment@CFepCtrlDropdownList@@QAEXW4TTextAlign@CGraphicsContext@@H@Z @ 156 NONAME ; void CFepCtrlDropdownList::SetTextAlighment(enum CGraphicsContext::TTextAlign, int)
	?SetTextColor@CFepCtrlDropdownList@@QAEXVTRgb@@H@Z @ 157 NONAME ; void CFepCtrlDropdownList::SetTextColor(class TRgb, int)
	?SetTextMargin@CFepCtrlDropdownList@@QAEXHH@Z @ 158 NONAME ; void CFepCtrlDropdownList::SetTextMargin(int, int)
	?SetTopLeftPoint@CFepCtrlDropdownList@@QAEXVTPoint@@@Z @ 159 NONAME ; void CFepCtrlDropdownList::SetTopLeftPoint(class TPoint)
	?SetUnicode@CAknFepCtrlEventButton@@QAEXH@Z @ 160 NONAME ; void CAknFepCtrlEventButton::SetUnicode(int)
	?SetVkbKeyboard@CAknFepCtrlVkbLayout@@QAEXPAVCPeninputVkbCtrlExt@@@Z @ 161 NONAME ; void CAknFepCtrlVkbLayout::SetVkbKeyboard(class CPeninputVkbCtrlExt *)
	?ShowAllRanges@CAknFepCtrlRangeBar@@QAEXXZ @ 162 NONAME ; void CAknFepCtrlRangeBar::ShowAllRanges(void)
	?ShowRange@CAknFepCtrlRangeBar@@QAEXH@Z @ 163 NONAME ; void CAknFepCtrlRangeBar::ShowRange(int)
	?SizeChanged@CAknFepCtrlButton@@QAEXVTRect@@H@Z @ 164 NONAME ; void CAknFepCtrlButton::SizeChanged(class TRect, int)
	?SizeChanged@CAknFepCtrlDragButton@@QAEXABVTRect@@H@Z @ 165 NONAME ABSENT ; void CAknFepCtrlDragButton::SizeChanged(class TRect const &, int)
	?SizeChanged@CAknFepCtrlMultiModeButton@@QAEXVTRect@@H@Z @ 166 NONAME ABSENT ; void CAknFepCtrlMultiModeButton::SizeChanged(class TRect, int)
	?SizeChanged@CAknFepCtrlRangeBar@@QAEXVTRect@@@Z @ 167 NONAME ; void CAknFepCtrlRangeBar::SizeChanged(class TRect)
	?SizeChanged@CFepCtrlDropdownList@@QAEXHHHVTPoint@@HH@Z @ 168 NONAME ; void CFepCtrlDropdownList::SizeChanged(int, int, int, class TPoint, int, int)
	?SizeChanged@CPeninputVkbCtrlExt@@QAEXHHABVTPoint@@@Z @ 169 NONAME ; void CPeninputVkbCtrlExt::SizeChanged(int, int, class TPoint const &)
	?Unicode@CAknFepCtrlEventButton@@QBEHXZ @ 170 NONAME ; int CAknFepCtrlEventButton::Unicode(void) const
	?VkbLayoutInfoList@CAknFepCtrlVkbLayout@@QAE?AV?$RPointerArray@VCPeninputVkbLayoutInfo@@@@XZ @ 171 NONAME ; class RPointerArray<class CPeninputVkbLayoutInfo> CAknFepCtrlVkbLayout::VkbLayoutInfoList(void)
	?AddCandidatesL@CFepCtrlDropdownList@@QAEXABV?$RPointerArray@VHBufC16@@@@W4TListType@1@@Z @ 172 NONAME ; void CFepCtrlDropdownList::AddCandidatesL(class RPointerArray<class HBufC16> const &, enum CFepCtrlDropdownList::TListType)
	?SetEventIdForCandidateExisted@CFepCtrlDropdownList@@QAEXH@Z @ 173 NONAME ; void CFepCtrlDropdownList::SetEventIdForCandidateExisted(int)
	?SetEventIdForNextPageCandidate@CFepCtrlDropdownList@@QAEXH@Z @ 174 NONAME ; void CFepCtrlDropdownList::SetEventIdForNextPageCandidate(int)
	?SetEventIdForPreviousPageCandidate@CFepCtrlDropdownList@@QAEXH@Z @ 175 NONAME ; void CFepCtrlDropdownList::SetEventIdForPreviousPageCandidate(int)
	?SetFlagCandidateExist@CFepCtrlDropdownList@@QAEXH@Z @ 176 NONAME ; void CFepCtrlDropdownList::SetFlagCandidateExist(int)	
	??0CAknFepCtrlRawKeyButton@@IAE@PAVCFepUiLayout@@HHHH@Z @ 177 NONAME ABSENT ; CAknFepCtrlRawKeyButton::CAknFepCtrlRawKeyButton(class CFepUiLayout *, int, int, int, int)
	??1CAknFepCtrlRawKeyButton@@UAE@XZ @ 178 NONAME ; CAknFepCtrlRawKeyButton::~CAknFepCtrlRawKeyButton(void)
	?ConstructFromResourceL@CAknFepCtrlRawKeyButton@@QAEXAAVTResourceReader@@@Z @ 179 NONAME ; void CAknFepCtrlRawKeyButton::ConstructFromResourceL(class TResourceReader &)
	?ConstructFromResourceL@CAknFepCtrlRawKeyButton@@UAEXXZ @ 180 NONAME ; void CAknFepCtrlRawKeyButton::ConstructFromResourceL(void)
	?HandlePointerDownEventL@CAknFepCtrlRawKeyButton@@UAEPAVCFepUiBaseCtrl@@ABVTPoint@@@Z @ 181 NONAME ; class CFepUiBaseCtrl * CAknFepCtrlRawKeyButton::HandlePointerDownEventL(class TPoint const &)
	?HandlePointerUpEventL@CAknFepCtrlRawKeyButton@@UAEPAVCFepUiBaseCtrl@@ABVTPoint@@@Z @ 182 NONAME ; class CFepUiBaseCtrl * CAknFepCtrlRawKeyButton::HandlePointerUpEventL(class TPoint const &)
	?NewL@CAknFepCtrlRawKeyButton@@SAPAV1@PAVCFepUiLayout@@HHHH@Z @ 183 NONAME ABSENT ; class CAknFepCtrlRawKeyButton * CAknFepCtrlRawKeyButton::NewL(class CFepUiLayout *, int, int, int, int)
	?NewL@CFepCtrlDropdownList@@SAPAV1@PAVCFepUiLayout@@HHVTPoint@@VTSize@@HH@Z @ 184 NONAME ; class CFepCtrlDropdownList * CFepCtrlDropdownList::NewL(class CFepUiLayout *, int, int, class TPoint, class TSize, int, int)
	?NewLC@CAknFepCtrlRawKeyButton@@SAPAV1@PAVCFepUiLayout@@HHHH@Z @ 185 NONAME ABSENT ; class CAknFepCtrlRawKeyButton * CAknFepCtrlRawKeyButton::NewLC(class CFepUiLayout *, int, int, int, int)
	?SetCandTruncateType@CFepCtrlDropdownList@@QAEXW4TCandTruncateType@1@@Z @ 186 NONAME ; void CFepCtrlDropdownList::SetCandTruncateType(enum CFepCtrlDropdownList::TCandTruncateType)
	?SetCellMargin@CFepCtrlDropdownList@@QAEXHH@Z @ 187 NONAME ; void CFepCtrlDropdownList::SetCellMargin(int, int)
	?SetSpinBtnHeight@CFepCtrlDropdownList@@QAEXH@Z @ 188 NONAME ; void CFepCtrlDropdownList::SetSpinBtnHeight(int)
	?HandlePointerLeave@CAknFepCtrlRawKeyButton@@UAEXABVTPoint@@@Z @ 189 NONAME ; void CAknFepCtrlRawKeyButton::HandlePointerLeave(class TPoint const &)
	??1CAknFepCtrlLabel@@UAE@XZ @ 190 NONAME ; CAknFepCtrlLabel::~CAknFepCtrlLabel(void)
	??1CPenInputSelectionList@@UAE@XZ @ 191 NONAME ; CPenInputSelectionList::~CPenInputSelectionList(void)
	?AddItemL@CPenInputSelectionList@@QAEXABVTDesC16@@@Z @ 192 NONAME ; void CPenInputSelectionList::AddItemL(class TDesC16 const &)
	?CloseWindow@CPenInputSelectionList@@QAEXXZ @ 193 NONAME ; void CPenInputSelectionList::CloseWindow(void)
	?ConstructFromResourceL@CPenInputSelectionList@@UAEXXZ @ 194 NONAME ; void CPenInputSelectionList::ConstructFromResourceL(void)
	?Display@CPenInputSelectionList@@QAEXXZ @ 195 NONAME ; void CPenInputSelectionList::Display(void)
	?Draw@CAknFepCtrlLabel@@UAEXXZ @ 196 NONAME ; void CAknFepCtrlLabel::Draw(void)
	?HandlePointerDownEventL@CPenInputSelectionList@@UAEPAVCFepUiBaseCtrl@@ABVTPoint@@@Z @ 197 NONAME ; class CFepUiBaseCtrl * CPenInputSelectionList::HandlePointerDownEventL(class TPoint const &)
	?HandlePointerMoveEventL@CPenInputSelectionList@@UAEPAVCFepUiBaseCtrl@@ABVTPoint@@@Z @ 198 NONAME ; class CFepUiBaseCtrl * CPenInputSelectionList::HandlePointerMoveEventL(class TPoint const &)
	?HandlePointerUpEventL@CPenInputSelectionList@@UAEPAVCFepUiBaseCtrl@@ABVTPoint@@@Z @ 199 NONAME ; class CFepUiBaseCtrl * CPenInputSelectionList::HandlePointerUpEventL(class TPoint const &)
	?NewL@CAknFepCtrlLabel@@SAPAV1@PAVCFepUiLayout@@H@Z @ 200 NONAME ; class CAknFepCtrlLabel * CAknFepCtrlLabel::NewL(class CFepUiLayout *, int)
	?NewL@CPenInputSelectionList@@SAPAV1@PAVCFepUiLayout@@HVTPoint@@VTSize@@H@Z @ 201 NONAME ; class CPenInputSelectionList * CPenInputSelectionList::NewL(class CFepUiLayout *, int, class TPoint, class TSize, int)
	?RemoveAllItems@CPenInputSelectionList@@QAEXXZ @ 202 NONAME ; void CPenInputSelectionList::RemoveAllItems(void)
	?RemoveItem@CPenInputSelectionList@@QAEXH@Z @ 203 NONAME ; void CPenInputSelectionList::RemoveItem(int)
	?SetBitmapL@CAknFepCtrlLabel@@QAEXPAVCFbsBitmap@@@Z @ 204 NONAME ; void CAknFepCtrlLabel::SetBitmapL(class CFbsBitmap *)
	?SetFont@CAknFepCtrlLabel@@UAEXABVTFontSpec@@@Z @ 205 NONAME ; void CAknFepCtrlLabel::SetFont(class TFontSpec const &)
	?SetFont@CAknFepCtrlLabel@@UAEXPBVCFont@@@Z @ 206 NONAME ; void CAknFepCtrlLabel::SetFont(class CFont const *)
	?SetFontColor@CAknFepCtrlLabel@@UAEXVTRgb@@@Z @ 207 NONAME ABSENT ; void CAknFepCtrlLabel::SetFontColor(class TRgb)
	?SetItemsL@CPenInputSelectionList@@QAEXABV?$RPointerArray@VHBufC16@@@@@Z @ 208 NONAME ; void CPenInputSelectionList::SetItemsL(class RPointerArray<class HBufC16> const &)
	?SetMaskBitmapL@CAknFepCtrlLabel@@QAEXPAVCFbsBitmap@@@Z @ 209 NONAME ; void CAknFepCtrlLabel::SetMaskBitmapL(class CFbsBitmap *)
	?SetText@CAknFepCtrlLabel@@QAEXABVTDesC16@@@Z @ 210 NONAME ; void CAknFepCtrlLabel::SetText(class TDesC16 const &)
	?SetTextAlignment@CAknFepCtrlLabel@@UAEXW4TTextAlign@CGraphicsContext@@@Z @ 211 NONAME ; void CAknFepCtrlLabel::SetTextAlignment(enum CGraphicsContext::TTextAlign)
	?SetTextProperty@CPenInputSelectionList@@QAEXPBVCFont@@VTRgb@@@Z @ 212 NONAME ; void CPenInputSelectionList::SetTextProperty(class CFont const *, class TRgb)
	?SizeChanged@CAknFepCtrlLabel@@UAEXVTRect@@H@Z @ 213 NONAME ; void CAknFepCtrlLabel::SizeChanged(class TRect, int)
	?SizeChanged@CPenInputSelectionList@@QAEXVTPoint@@VTSize@@H@Z @ 214 NONAME ; void CPenInputSelectionList::SizeChanged(class TPoint, class TSize, int)
	?TextAlignment@CAknFepCtrlLabel@@UAE?AW4TTextAlign@CGraphicsContext@@XZ @ 215 NONAME ; enum CGraphicsContext::TTextAlign CAknFepCtrlLabel::TextAlignment(void)
	?CreateSwitchL@PenInputModeSwitchFactory@@SAPAVMPenInputModeSwitchInterface@@PAVCFepUiLayout@@HW4TPluginInputMode@@@Z @ 216 NONAME ABSENT ; class MPenInputModeSwitchInterface * PenInputModeSwitchFactory::CreateSwitchL(class CFepUiLayout *, int, enum TPluginInputMode)
	?ReleaseSwitch@PenInputModeSwitchFactory@@SAXPAVMPenInputModeSwitchInterface@@@Z @ 217 NONAME ABSENT ; void PenInputModeSwitchFactory::ReleaseSwitch(class MPenInputModeSwitchInterface *)
	?SetFuzzyBoundry@CFepCtrlDropdownList@@QAEXH@Z @ 218 NONAME ; void CFepCtrlDropdownList::SetFuzzyBoundry(int)
	?SetCandExpandType@CFepCtrlDropdownList@@QAEXW4TExpandType@1@@Z @ 219 NONAME ; void CFepCtrlDropdownList::SetCandExpandType(enum CFepCtrlDropdownList::TExpandType)
	??0CAknFepCtrlCommonButton@@IAE@PAVCFepUiLayout@@HVTAknsItemID@@11@Z @ 220 NONAME ; CAknFepCtrlCommonButton::CAknFepCtrlCommonButton(class CFepUiLayout *, int, class TAknsItemID, class TAknsItemID, class TAknsItemID)
	??1CAknFepCtrlCommonButton@@UAE@XZ @ 221 NONAME ; CAknFepCtrlCommonButton::~CAknFepCtrlCommonButton(void)
	?ConstructFromResourceL@CAknFepCtrlCommonButton@@QAEXAAVTResourceReader@@@Z @ 222 NONAME ; void CAknFepCtrlCommonButton::ConstructFromResourceL(class TResourceReader &)
	?ConstructFromResourceL@CAknFepCtrlCommonButton@@UAEXXZ @ 223 NONAME ; void CAknFepCtrlCommonButton::ConstructFromResourceL(void)
	?Draw@CAknFepCtrlCommonButton@@UAEXXZ @ 224 NONAME ; void CAknFepCtrlCommonButton::Draw(void)
	?NewL@CAknFepCtrlCommonButton@@SAPAV1@PAVCFepUiLayout@@HVTAknsItemID@@11@Z @ 225 NONAME ; class CAknFepCtrlCommonButton * CAknFepCtrlCommonButton::NewL(class CFepUiLayout *, int, class TAknsItemID, class TAknsItemID, class TAknsItemID)
	?NewLC@CAknFepCtrlCommonButton@@SAPAV1@PAVCFepUiLayout@@HVTAknsItemID@@11@Z @ 226 NONAME ; class CAknFepCtrlCommonButton * CAknFepCtrlCommonButton::NewLC(class CFepUiLayout *, int, class TAknsItemID, class TAknsItemID, class TAknsItemID)
	?SetActive@CAknFepCtrlCommonButton@@UAEXH@Z @ 227 NONAME ; void CAknFepCtrlCommonButton::SetActive(int)
	?SetForgroundBmpRect@CAknFepCtrlCommonButton@@QAEXABVTRect@@@Z @ 228 NONAME ; void CAknFepCtrlCommonButton::SetForgroundBmpRect(class TRect const &)
	?SetHighlight@CAknFepCtrlCommonButton@@QAEXH@Z @ 229 NONAME ; void CAknFepCtrlCommonButton::SetHighlight(int)
	?SizeChanged@CAknFepCtrlCommonButton@@QAEXVTRect@@0H@Z @ 230 NONAME ; void CAknFepCtrlCommonButton::SizeChanged(class TRect, class TRect, int)
	??0CAknFepCtrlRawKeyButton@@IAE@PAVCFepUiLayout@@HVTAknsItemID@@11HHH@Z @ 231 NONAME ; CAknFepCtrlRawKeyButton::CAknFepCtrlRawKeyButton(class CFepUiLayout *, int, class TAknsItemID, class TAknsItemID, class TAknsItemID, int, int, int)
	?NewL@CAknFepCtrlRawKeyButton@@SAPAV1@PAVCFepUiLayout@@HVTAknsItemID@@11HHH@Z @ 232 NONAME ; class CAknFepCtrlRawKeyButton * CAknFepCtrlRawKeyButton::NewL(class CFepUiLayout *, int, class TAknsItemID, class TAknsItemID, class TAknsItemID, int, int, int)
	?NewLC@CAknFepCtrlRawKeyButton@@SAPAV1@PAVCFepUiLayout@@HVTAknsItemID@@11HHH@Z @ 233 NONAME ; class CAknFepCtrlRawKeyButton * CAknFepCtrlRawKeyButton::NewLC(class CFepUiLayout *, int, class TAknsItemID, class TAknsItemID, class TAknsItemID, int, int, int)
	?OnDeActivate@CAknFepCtrlRawKeyButton@@UAEXXZ @ 234 NONAME ; void CAknFepCtrlRawKeyButton::OnDeActivate(void)
	??1CPeninputLayoutInputmodelChoice@@UAE@XZ @ 235 NONAME ; CPeninputLayoutInputmodelChoice::~CPeninputLayoutInputmodelChoice(void)
	?NewL@CPeninputLayoutInputmodelChoice@@SAPAV1@PAVCFepUiLayout@@HW4TPluginInputMode@@@Z @ 236 NONAME ; class CPeninputLayoutInputmodelChoice * CPeninputLayoutInputmodelChoice::NewL(class CFepUiLayout *, int, enum TPluginInputMode)
	?PopUpSwitchListL@CPeninputLayoutInputmodelChoice@@QAEXABVTRect@@@Z @ 237 NONAME ; void CPeninputLayoutInputmodelChoice::PopUpSwitchListL(class TPoint const &, int)
	?SetSecretEditor@CPeninputLayoutInputmodelChoice@@QAEXH@Z @ 238 NONAME ; void CPeninputLayoutInputmodelChoice::SetSecretEditor(int)
	?SwitchListRect@CPeninputLayoutInputmodelChoice@@QAE?AVTRect@@XZ @ 239 NONAME ; class TRect CPeninputLayoutInputmodelChoice::SwitchListRect(void)
	?HandlePointerDownEventL@CAknFepCtrlCommonButton@@MAEPAVCFepUiBaseCtrl@@ABVTPoint@@@Z @ 240 NONAME ; class CFepUiBaseCtrl * CAknFepCtrlCommonButton::HandlePointerDownEventL(class TPoint const &)
	?HandlePointerLeave@CAknFepCtrlCommonButton@@MAEXABVTPoint@@@Z @ 241 NONAME ; void CAknFepCtrlCommonButton::HandlePointerLeave(class TPoint const &)
	?HandlePointerUpEventL@CAknFepCtrlCommonButton@@MAEPAVCFepUiBaseCtrl@@ABVTPoint@@@Z @ 242 NONAME ; class CFepUiBaseCtrl * CAknFepCtrlCommonButton::HandlePointerUpEventL(class TPoint const &)
	?SetForegroundBmpL@CAknFepCtrlCommonButton@@QAEXPAVCFbsBitmap@@0@Z @ 243 NONAME ; void CAknFepCtrlCommonButton::SetForegroundBmpL(class CFbsBitmap *, class CFbsBitmap *)
	?DisableOneModes@CAknFepCtrlMultiModeButton@@QAEXH@Z @ 244 NONAME ; void CAknFepCtrlMultiModeButton::DisableOneModes(int)
	??0CPeninputVkbCtrlExt@@IAE@ABVTRect@@PAVCFepUiLayout@@HABVTFontSpec@@H@Z @ 245 NONAME ; CPeninputVkbCtrlExt::CPeninputVkbCtrlExt(class TRect const &, class CFepUiLayout *, int, class TFontSpec const &, int)
	?ConstructFromIrregularResourceL@CAknFepCtrlVkbLayout@@QAEXXZ @ 246 NONAME ; void CAknFepCtrlVkbLayout::ConstructFromIrregularResourceL(void)
	?ConstructFromResourceL@CAknFepCtrlBaseWindow@@MAEXXZ @ 247 NONAME ABSENT ; void CAknFepCtrlBaseWindow::ConstructFromResourceL(void)
	?CreateBaseWindowControlsL@CAknFepCtrlBaseWindowL@@MAEXFJ@Z @ 248 NONAME ABSENT ; void CAknFepCtrlBaseWindow::CreateBaseWindowControlsL(short, long)
	?NewL@CPeninputVkbCtrlExt@@SAPAV1@ABVTRect@@PAVCFepUiLayout@@HPBVCFont@@H@Z @ 249 NONAME ; class CPeninputVkbCtrlExt * CPeninputVkbCtrlExt::NewL(class TRect const &, class CFepUiLayout *, int, class CFont const *, int)
	?ResetLayoutInfo@CPeninputVkbLayoutInfo@@QAEXABVTSize@@@Z @ 250 NONAME ; void CPeninputVkbLayoutInfo::ResetLayoutInfo(class TSize const &)
	?SetDispalyCellRectsL@CAknFepCtrlRangeBar@@QAEXABV?$RArray@VTRect@@@@0@Z @ 251 NONAME ; void CAknFepCtrlRangeBar::SetDispalyCellRectsL(class RArray<class TRect> const &, class RArray<class TRect> const &)
	?SetIrregularResourceId@CAknFepCtrlVkbLayout@@QAEXJ@Z @ 252 NONAME ; void CAknFepCtrlVkbLayout::SetIrregularResourceId(long)
	?SetKeyInfo@CPeninputVkbLayoutInfo@@QAEXHHABVTRect@@0PBVCFont@@@Z @ 253 NONAME ; void CPeninputVkbLayoutInfo::SetKeyInfo(int, int, class TRect const &, class TRect const &, class CFont const *)
	?SizeChanged@CPeninputVkbCtrlExt@@QAEXABVTRect@@@Z @ 254 NONAME ; void CPeninputVkbCtrlExt::SizeChanged(class TRect const &)
	??0CAknFepCtrlBaseWindowExt@@IAE@PAVCFepUiLayout@@H@Z @ 255 NONAME ; CAknFepCtrlBaseWindowExt::CAknFepCtrlBaseWindowExt(class CFepUiLayout *, int)
	??1CAknFepCtrlBaseWindowExt@@UAE@XZ @ 256 NONAME ; CAknFepCtrlBaseWindowExt::~CAknFepCtrlBaseWindowExt(void)
	?BaseConstructL@CAknFepCtrlBaseWindowExt@@IAEXXZ @ 257 NONAME ; void CAknFepCtrlBaseWindowExt::BaseConstructL(void)
	?Close@CAknFepCtrlBaseWindowExt@@QAEXXZ @ 258 NONAME ; void CAknFepCtrlBaseWindowExt::Close(void)
	?ConstructFromResourceL@CAknFepCtrlBaseWindowExt@@MAEXXZ @ 259 NONAME ; void CAknFepCtrlBaseWindowExt::ConstructFromResourceL(void)
	?Control@CAknFepCtrlBaseWindowExt@@QAEPAVCFepUiBaseCtrl@@H@Z @ 260 NONAME ; class CFepUiBaseCtrl * CAknFepCtrlBaseWindowExt::Control(int)
	?CreateBaseWindowControlsL@CAknFepCtrlBaseWindowExt@@MAEXFJ@Z @ 261 NONAME ; void CAknFepCtrlBaseWindowExt::CreateBaseWindowControlsL(short, long)
	?DoClose@CAknFepCtrlBaseWindowExt@@MAEHXZ @ 262 NONAME ; int CAknFepCtrlBaseWindowExt::DoClose(void)
	?Draw@CAknFepCtrlBaseWindowExt@@UAEXXZ @ 263 NONAME ; void CAknFepCtrlBaseWindowExt::Draw(void)
	?HandleControlEvent@CAknFepCtrlBaseWindowExt@@UAEXHPAVCFepUiBaseCtrl@@ABVTDesC16@@@Z @ 264 NONAME ; void CAknFepCtrlBaseWindowExt::HandleControlEvent(int, class CFepUiBaseCtrl *, class TDesC16 const &)
	?SetDragEnable@CAknFepCtrlBaseWindowExt@@QAEXH@Z @ 265 NONAME ; void CAknFepCtrlBaseWindowExt::SetDragEnable(int)
	?ConstructFromNonIrregularResourceL@CAknFepCtrlVkbLayout@@QAEXXZ @ 266 NONAME ; void CAknFepCtrlVkbLayout::ConstructFromNonIrregularResourceL(void)
	?SetNonIrregularResourceId@CAknFepCtrlVkbLayout@@QAEXJ@Z @ 267 NONAME ; void CAknFepCtrlVkbLayout::SetNonIrregularResourceId(long)
	?GetRealCaseByMode@CAknFepCtrlMultiModeButton@@QBEHH@Z @ 268 NONAME ; int CAknFepCtrlMultiModeButton::GetRealCaseByMode(int) const
	?HideRangeUsingIndicatorStyle@CAknFepCtrlRangeBar@@QAEXH@Z @ 269 NONAME ; void CAknFepCtrlRangeBar::HideRangeUsingIndicatorStyle(int)
	?ShowRangeUsingIndicatorStyle@CAknFepCtrlRangeBar@@QAEXH@Z @ 270 NONAME ; void CAknFepCtrlRangeBar::ShowRangeUsingIndicatorStyle(int)
	??1CFepLayoutScrollableList@@UAE@XZ @ 271 NONAME ; CFepLayoutScrollableList::~CFepLayoutScrollableList(void)
	?CalcPageInfo@CFepLayoutScrollableList@@AAEXXZ @ 272 NONAME ; void CFepLayoutScrollableList::CalcPageInfo(void)
	?ConstructFromResourceL@CFepLayoutScrollableList@@UAEXXZ @ 273 NONAME ; void CFepLayoutScrollableList::ConstructFromResourceL(void)
	?NewL@CFepLayoutScrollableList@@SAPAV1@PAVCFepUiLayout@@HVTSize@@HH11@Z @ 274 NONAME ; class CFepLayoutScrollableList * CFepLayoutScrollableList::NewL(class CFepUiLayout *, int, class TSize, int, int, class TSize, class TSize)
	?NewLC@CFepLayoutScrollableList@@SAPAV1@PAVCFepUiLayout@@HVTSize@@HH11@Z @ 275 NONAME ; class CFepLayoutScrollableList * CFepLayoutScrollableList::NewLC(class CFepUiLayout *, int, class TSize, int, int, class TSize, class TSize)
	?SetImgFrId@CFepLayoutScrollableList@@QAEXVTAknsItemID@@00000@Z @ 276 NONAME ; void CFepLayoutScrollableList::SetImgFrId(class TAknsItemID, class TAknsItemID, class TAknsItemID, class TAknsItemID, class TAknsItemID, class TAknsItemID)
	?SetTextProperty@CFepLayoutScrollableList@@QAEXPBVCFont@@VTRgb@@@Z @ 277 NONAME ; void CFepLayoutScrollableList::SetTextProperty(class CFont const *, class TRgb)
	?SizeChanged@CFepLayoutScrollableList@@QAEXVTSize@@HH00@Z @ 278 NONAME ; void CFepLayoutScrollableList::SizeChanged(class TSize, int, int, class TSize, class TSize)
	?Move@CAknFepCtrlCommonButton@@MAEXABVTPoint@@@Z @ 279 NONAME ; void CAknFepCtrlCommonButton::Move(class TPoint const &)
	??1CPeninputCommonChoiceList@@UAE@XZ @ 280 NONAME ; CPeninputCommonChoiceList::~CPeninputCommonChoiceList(void)
	?AddItemRectL@CPeninputCommonChoiceList@@QAEXABVTRect@@@Z @ 281 NONAME ; void CPeninputCommonChoiceList::AddItemRectL(class TRect const &)
	?Draw@CPeninputCommonChoiceList@@EAEXXZ @ 282 NONAME ; void CPeninputCommonChoiceList::Draw(void)
	?NewL@CPeninputCommonChoiceList@@SAPAV1@PAVCFepUiLayout@@HVTAknsItemID@@1W4ECommonChoiceListStyle@@@Z @ 283 NONAME ; class CPeninputCommonChoiceList * CPeninputCommonChoiceList::NewL(class CFepUiLayout *, int, class TAknsItemID, class TAknsItemID, enum ECommonChoiceListStyle)
	?ReCalcLayout@CPeninputCommonChoiceList@@EAEXXZ @ 284 NONAME ; void CPeninputCommonChoiceList::ReCalcLayout(void)
	?RemoveAllItemsRect@CPeninputCommonChoiceList@@QAEXXZ @ 285 NONAME ; void CPeninputCommonChoiceList::RemoveAllItemsRect(void)
	?SetListColumnNumWithLafL@CPeninputCommonChoiceList@@QAEXH@Z @ 286 NONAME ; void CPeninputCommonChoiceList::SetListColumnNumWithLafL(int)
	?SetListSkinID@CPeninputCommonChoiceList@@QAEXVTAknsItemID@@0@Z @ 287 NONAME ; void CPeninputCommonChoiceList::SetListSkinID(class TAknsItemID, class TAknsItemID)
	?SetTextLayout@CPeninputCommonChoiceList@@QAEXABVTAknTextLineLayout@@@Z @ 288 NONAME ; void CPeninputCommonChoiceList::SetTextLayout(class TAknTextLineLayout const &)
	?SetListSeperationRect@CFepLayoutScrollableList@@QAEXABVTRect@@@Z @ 289 NONAME ; void CFepLayoutScrollableList::SetListSeperationRect(class TRect const &)
	?HitTest@CPeninputCommonChoiceList@@UAEHABVTPoint@@@Z @ 290 NONAME ; int CPeninputCommonChoiceList::HitTest(class TPoint const &)
	??0CAknFepCtrlEventButton@@IAE@PAVCFepUiLayout@@HHHVTAknsItemID@@11@Z @ 291 NONAME ; CAknFepCtrlEventButton::CAknFepCtrlEventButton(class CFepUiLayout *, int, int, int, class TAknsItemID, class TAknsItemID, class TAknsItemID)
	?NewL@CAknFepCtrlEventButton@@SAPAV1@PAVCFepUiLayout@@HHHVTAknsItemID@@11@Z @ 292 NONAME ; class CAknFepCtrlEventButton * CAknFepCtrlEventButton::NewL(class CFepUiLayout *, int, int, int, class TAknsItemID, class TAknsItemID, class TAknsItemID)
	?NewLC@CAknFepCtrlEventButton@@SAPAV1@PAVCFepUiLayout@@HHHVTAknsItemID@@11@Z @ 293 NONAME ; class CAknFepCtrlEventButton * CAknFepCtrlEventButton::NewLC(class CFepUiLayout *, int, int, int, class TAknsItemID, class TAknsItemID, class TAknsItemID)
	??0CAknFepCtrlRepeatButton@@IAE@PAVCFepUiLayout@@HHHVTAknsItemID@@11@Z @ 294 NONAME ; CAknFepCtrlRepeatButton::CAknFepCtrlRepeatButton(class CFepUiLayout *, int, int, int, class TAknsItemID, class TAknsItemID, class TAknsItemID)
	?NewL@CAknFepCtrlRepeatButton@@SAPAV1@PAVCFepUiLayout@@HHHVTAknsItemID@@11@Z @ 295 NONAME ; class CAknFepCtrlRepeatButton * CAknFepCtrlRepeatButton::NewL(class CFepUiLayout *, int, int, int, class TAknsItemID, class TAknsItemID, class TAknsItemID)
	?NewLC@CAknFepCtrlRepeatButton@@SAPAV1@PAVCFepUiLayout@@HHHVTAknsItemID@@11@Z @ 296 NONAME ; class CAknFepCtrlRepeatButton * CAknFepCtrlRepeatButton::NewLC(class CFepUiLayout *, int, int, int, class TAknsItemID, class TAknsItemID, class TAknsItemID)
	?Draw@CAknFepCtrlDragButton@@UAEXXZ @ 297 NONAME ; void CAknFepCtrlDragButton::Draw(void)
	?Move@CAknFepCtrlDragButton@@UAEXABVTPoint@@@Z @ 298 NONAME ; void CAknFepCtrlDragButton::Move(class TPoint const &)
	?SetForegroundBmpL@CAknFepCtrlDragButton@@QAEXPAVCFbsBitmap@@0@Z @ 299 NONAME ; void CAknFepCtrlDragButton::SetForegroundBmpL(class CFbsBitmap *, class CFbsBitmap *)
	?SetForgroundBmpRect@CAknFepCtrlDragButton@@QAEXABVTRect@@@Z @ 300 NONAME ; void CAknFepCtrlDragButton::SetForgroundBmpRect(class TRect const &)
	?SizeChanged@CAknFepCtrlDragButton@@QAEXABVTRect@@0H@Z @ 301 NONAME ABSENT ; void CAknFepCtrlDragButton::SizeChanged(class TRect const &, class TRect const &, int)
	?SizeChanged@CAknFepCtrlDragButton@@QAEXVTRect@@0H@Z @ 302 NONAME ; void CAknFepCtrlDragButton::SizeChanged(class TRect, class TRect, int)
	?HandlePointerDownEventL@CAknFepCtrlDragButton@@UAEPAVCFepUiBaseCtrl@@ABVTPoint@@@Z @ 303 NONAME ABSENT ; class CFepUiBaseCtrl * CAknFepCtrlDragButton::HandlePointerDownEventL(class TPoint const &)
	??0CAknFepCtrlMultiModeButton@@IAE@PAVCFepUiLayout@@HVTAknsItemID@@11@Z @ 304 NONAME ; CAknFepCtrlMultiModeButton::CAknFepCtrlMultiModeButton(class CFepUiLayout *, int, class TAknsItemID, class TAknsItemID, class TAknsItemID)
	?NewL@CAknFepCtrlMultiModeButton@@SAPAV1@PAVCFepUiLayout@@HVTAknsItemID@@11@Z @ 305 NONAME ; class CAknFepCtrlMultiModeButton * CAknFepCtrlMultiModeButton::NewL(class CFepUiLayout *, int, class TAknsItemID, class TAknsItemID, class TAknsItemID)
	?NewLC@CAknFepCtrlMultiModeButton@@SAPAV1@PAVCFepUiLayout@@HVTAknsItemID@@11@Z @ 306 NONAME ; class CAknFepCtrlMultiModeButton * CAknFepCtrlMultiModeButton::NewLC(class CFepUiLayout *, int, class TAknsItemID, class TAknsItemID, class TAknsItemID)
	?SizeChanged@CAknFepCtrlMultiModeButton@@QAEXVTRect@@0H@Z @ 307 NONAME ; void CAknFepCtrlMultiModeButton::SizeChanged(class TRect, class TRect, int)
	?SetDraw3PieceFrameInfo@CAknFepCtrlCommonButton@@QAEXUTDraw3PiecesFrame@@@Z @ 308 NONAME ; void CAknFepCtrlCommonButton::SetDraw3PieceFrameInfo(struct TDraw3PiecesFrame)
	?HandlePointerEnter@CAknFepCtrlCommonButton@@MAEXABVTPoint@@@Z @ 309 NONAME ; void CAknFepCtrlCommonButton::HandlePointerEnter(class TPoint const &)
	?Hide@CFepLayoutScrollableList@@UAEXH@Z @ 310 NONAME ; void CFepLayoutScrollableList::Hide(int)
	?SetDropdownListImgID@CFepCtrlDropdownList@@QAEXUTDropdownListDrawInfo@@@Z @ 311 NONAME ; void CFepCtrlDropdownList::SetDropdownListImgID(struct TDropdownListDrawInfo)
	?DimKeySet@CPeninputVkbCtrlExt@@QAEXPBVHBufC16@@H@Z @ 312 NONAME ; void CPeninputVkbCtrlExt::DimKeySet(class HBufC16 const *, int)
	??0CAknFepCtrlMultiImageButton@@IAE@PAVCFepUiLayout@@HVTAknsItemID@@11@Z @ 313 NONAME ; CAknFepCtrlMultiImageButton::CAknFepCtrlMultiImageButton(class CFepUiLayout *, int, class TAknsItemID, class TAknsItemID, class TAknsItemID)
	??1CAknFepCtrlMultiImageButton@@UAE@XZ @ 314 NONAME ; CAknFepCtrlMultiImageButton::~CAknFepCtrlMultiImageButton(void)
	?ConstructFromResourceL@CAknFepCtrlMultiImageButton@@QAEXAAVTResourceReader@@@Z @ 315 NONAME ; void CAknFepCtrlMultiImageButton::ConstructFromResourceL(class TResourceReader &)
	?ConstructFromResourceL@CAknFepCtrlMultiImageButton@@UAEXXZ @ 316 NONAME ; void CAknFepCtrlMultiImageButton::ConstructFromResourceL(void)
	?Draw@CAknFepCtrlMultiImageButton@@UAEXXZ @ 317 NONAME ; void CAknFepCtrlMultiImageButton::Draw(void)
	?Move@CAknFepCtrlMultiImageButton@@UAEXABVTPoint@@@Z @ 318 NONAME ; void CAknFepCtrlMultiImageButton::Move(class TPoint const &)
	?NewL@CAknFepCtrlMultiImageButton@@SAPAV1@PAVCFepUiLayout@@HVTAknsItemID@@11@Z @ 319 NONAME ; class CAknFepCtrlMultiImageButton * CAknFepCtrlMultiImageButton::NewL(class CFepUiLayout *, int, class TAknsItemID, class TAknsItemID, class TAknsItemID)
	?NewLC@CAknFepCtrlMultiImageButton@@SAPAV1@PAVCFepUiLayout@@HVTAknsItemID@@11@Z @ 320 NONAME ; class CAknFepCtrlMultiImageButton * CAknFepCtrlMultiImageButton::NewLC(class CFepUiLayout *, int, class TAknsItemID, class TAknsItemID, class TAknsItemID)
	?SizeChanged@CAknFepCtrlMultiImageButton@@QAEXVTRect@@0H@Z @ 321 NONAME ; void CAknFepCtrlMultiImageButton::SizeChanged(class TRect, class TRect, int)
	?ConstructFromResourceL@CPeninputVkbCtrlExt@@UAEXXZ @ 322 NONAME ; void CPeninputVkbCtrlExt::ConstructFromResourceL(void)
	??0CFepLayoutScrollableList@@IAE@PAVCFepUiLayout@@HVTSize@@HH11@Z @ 323 NONAME ; CFepLayoutScrollableList::CFepLayoutScrollableList(class CFepUiLayout *, int, class TSize, int, int, class TSize, class TSize)
	??0CPeninputCommonChoiceList@@IAE@PAVCFepUiLayout@@HVTAknsItemID@@1W4ECommonChoiceListStyle@@@Z @ 324 NONAME ; CPeninputCommonChoiceList::CPeninputCommonChoiceList(class CFepUiLayout *, int, class TAknsItemID, class TAknsItemID, enum ECommonChoiceListStyle)
	?CalculateItemWidth@CFepLayoutScrollableList@@MAEXXZ @ 325 NONAME ; void CFepLayoutScrollableList::CalculateItemWidth(void)
	?ConstructL@CFepLayoutScrollableList@@IAEXXZ @ 326 NONAME ; void CFepLayoutScrollableList::ConstructL(void)
	?Draw@CFepLayoutScrollableList@@UAEXXZ @ 327 NONAME ; void CFepLayoutScrollableList::Draw(void)
	?DrawItem@CFepLayoutScrollableList@@MAEXHH@Z @ 328 NONAME ; void CFepLayoutScrollableList::DrawItem(int, int)
	?DrawPageInfo@CFepLayoutScrollableList@@MAEXXZ @ 329 NONAME ; void CFepLayoutScrollableList::DrawPageInfo(void)
	?HandleControlEvent@CFepLayoutScrollableList@@MAEXHPAVCFepUiBaseCtrl@@ABVTDesC16@@@Z @ 330 NONAME ; void CFepLayoutScrollableList::HandleControlEvent(int, class CFepUiBaseCtrl *, class TDesC16 const &)
	?HitTest@CFepLayoutScrollableList@@MAEHABVTPoint@@@Z @ 331 NONAME ; int CFepLayoutScrollableList::HitTest(class TPoint const &)
	?Move@CFepLayoutScrollableList@@MAEXABVTPoint@@@Z @ 332 NONAME ; void CFepLayoutScrollableList::Move(class TPoint const &)
	?ReCalcLayout@CFepLayoutScrollableList@@UAEXXZ @ 333 NONAME ; void CFepLayoutScrollableList::ReCalcLayout(void)
	?UpdateNaviButtonStates@CFepLayoutScrollableList@@QAEXXZ @ 334 NONAME ; void CFepLayoutScrollableList::UpdateNaviButtonStates(void)
	?UpdatePageInfoL@CFepLayoutScrollableList@@IAEXHH@Z @ 335 NONAME ; void CFepLayoutScrollableList::UpdatePageInfoL(int, int)
	?CancelPointerDownL@CAknFepCtrlRepeatButton@@MAEXXZ @ 336 NONAME ; void CAknFepCtrlRepeatButton::CancelPointerDownL(void)
	?NewL@CFepCtrlDropdownList@@SAPAV1@PAVCFepUiLayout@@HHVTPoint@@PBVCFont@@VTSize@@HHHHHHW4THDirection@1@H@Z @ 337 NONAME ; class CFepCtrlDropdownList * CFepCtrlDropdownList::NewL(class CFepUiLayout *, int, int, class TPoint, class CFont const *, class TSize, int, int, int, int, int, int, enum CFepCtrlDropdownList::THDirection, int)
	?SetSecondaryList@CFepCtrlDropdownList@@QAEXAAV?$RArray@H@@H@Z @ 338 NONAME ; void CFepCtrlDropdownList::SetSecondaryList(class RArray<int> &, int)
	?ShowBubble@CFepCtrlDropdownList@@QAEXH@Z @ 339 NONAME ; void CFepCtrlDropdownList::ShowBubble(int)
	?SetBubbleTextFont@CFepCtrlDropdownList@@QAEXPBVCFont@@@Z @ 340 NONAME ; void CFepCtrlDropdownList::SetBubbleTextFont(class CFont const *)
	?SetBubbleSize@CFepCtrlDropdownList@@QAEXABVTSize@@@Z @ 341 NONAME ; void CFepCtrlDropdownList::SetBubbleSize(class TSize const &)
	?SetFrameDiff@CFepCtrlDropdownList@@QAEXHHHH@Z @ 342 NONAME ; void CFepCtrlDropdownList::SetFrameDiff(int, int, int, int)
	?SetBubbleBitmapParam@CFepCtrlDropdownList@@QAEXPAVCFbsBitmap@@0VTAknsItemID@@@Z @ 343 NONAME ; void CFepCtrlDropdownList::SetBubbleBitmapParam(class CFbsBitmap *, class CFbsBitmap *, class TAknsItemID)
	?SetTextFormat@CFepCtrlDropdownList@@QAEXVTAknTextLineLayout@@@Z @ 344 NONAME ; void CFepCtrlDropdownList::SetTextFormat(class TAknTextLineLayout)
	?ReDrawRect@CFepCtrlDropdownList@@UAEXABVTRect@@@Z @ 345 NONAME ; void CFepCtrlDropdownList::ReDrawRect(class TRect const &)
	?CancelPointerDownL@CAknFepCtrlCommonButton@@UAEXXZ @ 346 NONAME ; void CAknFepCtrlCommonButton::CancelPointerDownL(void)
	?SetHighlightCell@CFepCtrlDropdownList@@QAEXHHH@Z @ 347 NONAME ; void CFepCtrlDropdownList::SetHighlightCell(int, int, int)
	?Hide@CFepCtrlDropdownList@@UAEXH@Z @ 348 NONAME ; void CFepCtrlDropdownList::Hide(int)
	?HandleResourceChange@CPeninputVkbCtrlExt@@MAEXH@Z @ 349 NONAME ; void CPeninputVkbCtrlExt::HandleResourceChange(int)
	?CancelPointerDownL@CAknFepCtrlLongPressButton@@MAEXXZ @ 350 NONAME ; void CAknFepCtrlLongPressButton::CancelPointerDownL(void)
	?HandlePointerLeave@CAknFepCtrlLongPressButton@@MAEXABVTPoint@@@Z @ 351 NONAME ; void CAknFepCtrlLongPressButton::HandlePointerLeave(class TPoint const &)
	?ConstructL@CAknFepCtrlLongPressButton@@IAEXXZ @ 352 NONAME ; void CAknFepCtrlLongPressButton::ConstructL(void)
	?HandlePointerDownEventL@CAknFepCtrlLongPressButton@@MAEPAVCFepUiBaseCtrl@@ABVTPoint@@@Z @ 353 NONAME ; class CFepUiBaseCtrl * CAknFepCtrlLongPressButton::HandlePointerDownEventL(class TPoint const &)
	??0CAknFepCtrlLongPressButton@@IAE@PAVCFepUiLayout@@HHHVTAknsItemID@@11@Z @ 354 NONAME ; CAknFepCtrlLongPressButton::CAknFepCtrlLongPressButton(class CFepUiLayout *, int, int, int, class TAknsItemID, class TAknsItemID, class TAknsItemID)
	?NewLC@CAknFepCtrlLongPressButton@@SAPAV1@PAVCFepUiLayout@@HHHVTAknsItemID@@11@Z @ 355 NONAME ; class CAknFepCtrlLongPressButton * CAknFepCtrlLongPressButton::NewLC(class CFepUiLayout *, int, int, int, class TAknsItemID, class TAknsItemID, class TAknsItemID)
	?HandlePointerUpEventL@CAknFepCtrlLongPressButton@@MAEPAVCFepUiBaseCtrl@@ABVTPoint@@@Z @ 356 NONAME ; class CFepUiBaseCtrl * CAknFepCtrlLongPressButton::HandlePointerUpEventL(class TPoint const &)
	?NewL@CAknFepCtrlLongPressButton@@SAPAV1@PAVCFepUiLayout@@HHHVTAknsItemID@@11@Z @ 357 NONAME ; class CAknFepCtrlLongPressButton * CAknFepCtrlLongPressButton::NewL(class CFepUiLayout *, int, int, int, class TAknsItemID, class TAknsItemID, class TAknsItemID)
	??1CAknFepCtrlLongPressButton@@UAE@XZ @ 358 NONAME ; CAknFepCtrlLongPressButton::~CAknFepCtrlLongPressButton(void)
	?HandleTimerOut@CAknFepCtrlLongPressButton@@UAEXPBVCAknFepTimer@@@Z @ 359 NONAME ; void CAknFepCtrlLongPressButton::HandleTimerOut(class CAknFepTimer const *)
	?CancelTimer@CAknFepCtrlLongPressButton@@QAEXXZ @ 360 NONAME ; void CAknFepCtrlLongPressButton::CancelTimer(void)
