EXPORTS
	_ZN21CPeninputJapaneseView10ConstructLEv @ 1 NONAME
	_ZN22CPeninputHiraganaKanji12CancelRepeatEv @ 2 NONAME
	_ZN22CPeninputHiraganaKanji14HandleKeyEventERK9TRawEvent @ 3 NONAME
	_ZN22CPeninputHiraganaKanji14SetEditorTextLERK25TFepInputContextFieldData @ 4 NONAME
	_ZN22CPeninputHiraganaKanji19HandlePendingEventLEv @ 5 NONAME
	_ZN22CPeninputHiraganaKanji19RepeatClearKeyStartEv @ 6 NONAME
	_ZN22CPeninputHiraganaKanji21HandleControlEventJpLEiRK7TDesC16 @ 7 NONAME
	_ZN22CPeninputHiraganaKanji4NewLEP10CPtiEngineP12CFepUiLayoutP23CFepInputContextFieldJpP29CPeninputJapaneseCandidateWndP30CPeninputJapanesePredictiveWnd @ 8 NONAME
	_ZN22CPeninputHiraganaKanjiD0Ev @ 9 NONAME
	_ZN22CPeninputHiraganaKanjiD1Ev @ 10 NONAME
	_ZN22CPeninputHiraganaKanjiD2Ev @ 11 NONAME
	_ZN23CFepInputContextFieldJp12StartInlineLEv @ 12 NONAME
	_ZN23CFepInputContextFieldJp13CancelInlineLEv @ 13 NONAME
	_ZN23CFepInputContextFieldJp13CommitInlineLEv @ 14 NONAME
	_ZN23CFepInputContextFieldJp13UpdateInlineLER7TDesC16iNS_25TTransitoryInputAreaStateE @ 15 NONAME
	_ZN23CFepInputContextFieldJp17CharacterOnCursorEv @ 16 NONAME
	_ZN23CFepInputContextFieldJp17SetCursorPositionEi @ 17 NONAME
	_ZN23CFepInputContextFieldJp21CharacterAroundCursorEi @ 18 NONAME
	_ZN23CFepInputContextFieldJp4NewLE5TRectP12CFepUiLayouti @ 19 NONAME
	_ZN23CFepInputContextFieldJp8SetTextLERK25TFepInputContextFieldData @ 20 NONAME
	_ZN23CFepInputContextFieldJpD0Ev @ 21 NONAME
	_ZN23CFepInputContextFieldJpD1Ev @ 22 NONAME
	_ZN23CFepInputContextFieldJpD2Ev @ 23 NONAME
	_ZN23CPeninputLayoutWindowJp15CandidateWindowEv @ 24 NONAME
	_ZN23CPeninputLayoutWindowJp15SetControlsFontEv @ 25 NONAME
	_ZN23CPeninputLayoutWindowJp16PredictiveWindowEv @ 26 NONAME
	_ZN23CPeninputLayoutWindowJp17InputContextFieldEv @ 27 NONAME
	_ZN23CPeninputLayoutWindowJp18CreateAllControlsLEv @ 28 NONAME
	_ZN23CPeninputLayoutWindowJp18HandleControlEventEiP14CFepUiBaseCtrlRK7TDesC16 @ 29 NONAME
	_ZN23CPeninputLayoutWindowJp20CharacterRangeWindowEv @ 30 NONAME
	_ZN23CPeninputLayoutWindowJp21HandlePointerUpEventLERK6TPoint @ 31 NONAME
	_ZN23CPeninputLayoutWindowJp22ConstructFromResourceLEv @ 32 NONAME
	_ZN23CPeninputLayoutWindowJp23HandlePointerDownEventLERK6TPoint @ 33 NONAME
	_ZN23CPeninputLayoutWindowJp23HandlePointerMoveEventLERK6TPoint @ 34 NONAME
	_ZN23CPeninputLayoutWindowJp6ClosedEv @ 35 NONAME
	_ZN23CPeninputLayoutWindowJp6OpenedEv @ 36 NONAME
	_ZN23CPeninputLayoutWindowJpC2EP12CFepUiLayoutP22MPeninputLayoutContext @ 37 NONAME
	_ZN23CPeninputLayoutWindowJpD0Ev @ 38 NONAME
	_ZN23CPeninputLayoutWindowJpD1Ev @ 39 NONAME
	_ZN23CPeninputLayoutWindowJpD2Ev @ 40 NONAME
	_ZN29CPeninputJapaneseCandidateWnd10ShowPopupLEP16CDesC16ArrayFlati @ 41 NONAME
	_ZN29CPeninputJapaneseCandidateWnd11SetPositionERK6TPoint @ 42 NONAME
	_ZN29CPeninputJapaneseCandidateWnd4NewLEP12CFepUiLayoutiPK11CCoeControl @ 43 NONAME
	_ZN29CPeninputJapaneseCandidateWnd7SetRectERK5TRect @ 44 NONAME
	_ZN29CPeninputJapaneseCandidateWnd9HidePopupEv @ 45 NONAME
	_ZN30CPeninputJapanesePredictiveWnd4NewLEP12CFepUiLayoutiPK11CCoeControl @ 46 NONAME
	_ZN30CPeninputJapanesePredictiveWnd7SetRectERK5TRect @ 47 NONAME
	_ZNK23CFepInputContextFieldJp13DivisionPointEv @ 48 NONAME
	_ZNK23CFepInputContextFieldJp14CursorPositionEv @ 49 NONAME
	_ZNK29CPeninputJapaneseCandidateWnd16CurrentItemIndexEv @ 50 NONAME
	_ZTI21CPeninputJapaneseView @ 51 NONAME ; #<TI>#
	_ZTI22CPeninputHiraganaKanji @ 52 NONAME ; #<TI>#
	_ZTI23CFepInputContextFieldJp @ 53 NONAME ; #<TI>#
	_ZTI23CPeninputLayoutWindowJp @ 54 NONAME ; #<TI>#
	_ZTI24CPredictivePopupLineInfo @ 55 NONAME ; #<TI>#
	_ZTI29CPeninputJapaneseCandidateWnd @ 56 NONAME ; #<TI>#
	_ZTI30CPeninputJapanesePredictiveWnd @ 57 NONAME ; #<TI>#
	_ZTI33CPeninputJapaneseCandidateListBox @ 58 NONAME ; #<TI>#
	_ZTI34CPeninputJapanesePredictiveListBox @ 59 NONAME ; #<TI>#
	_ZTI38CPeninputJapanesePredictiveListBoxView @ 60 NONAME ; #<TI>#
	_ZTI41CPeninputJapaneseCandidateCellListBoxData @ 61 NONAME ; #<TI>#
	_ZTI42CPeninputJapanesePredictiveCellListBoxData @ 62 NONAME ; #<TI>#
	_ZTV21CPeninputJapaneseView @ 63 NONAME ; #<VT>#
	_ZTV22CPeninputHiraganaKanji @ 64 NONAME ; #<VT>#
	_ZTV23CFepInputContextFieldJp @ 65 NONAME ; #<VT>#
	_ZTV23CPeninputLayoutWindowJp @ 66 NONAME ; #<VT>#
	_ZTV24CPredictivePopupLineInfo @ 67 NONAME ; #<VT>#
	_ZTV29CPeninputJapaneseCandidateWnd @ 68 NONAME ; #<VT>#
	_ZTV30CPeninputJapanesePredictiveWnd @ 69 NONAME ; #<VT>#
	_ZTV33CPeninputJapaneseCandidateListBox @ 70 NONAME ; #<VT>#
	_ZTV34CPeninputJapanesePredictiveListBox @ 71 NONAME ; #<VT>#
	_ZTV38CPeninputJapanesePredictiveListBoxView @ 72 NONAME ; #<VT>#
	_ZTV41CPeninputJapaneseCandidateCellListBoxData @ 73 NONAME ; #<VT>#
	_ZTV42CPeninputJapanesePredictiveCellListBoxData @ 74 NONAME ; #<VT>#
	_ZThn472_N23CPeninputLayoutWindowJp18HandleControlEventEiP14CFepUiBaseCtrlRK7TDesC16 @ 75 NONAME ABSENT ; #<thunk>#
	_ZThn8_N23CPeninputLayoutWindowJp22ConstructFromResourceLEv @ 76 NONAME ; #<thunk>#
	_ZThn616_N23CPeninputLayoutWindowJp18HandleControlEventEiP14CFepUiBaseCtrlRK7TDesC16 @ 77 NONAME ; #<thunk>#
	_ZN23CFepInputContextFieldJp15CompleteInlineLEv @ 78 NONAME
	_ZN23CPeninputLayoutWindowJp23ICFEnableRegionUpdatingEv @ 79 NONAME
	_ZN23CPeninputLayoutWindowJp24ICFDisableRegionUpdatingEv @ 80 NONAME

